
========================================================================

** ELF Header Information

    File Name: Objects\template.axf

    Machine class: ELFCLASS32 (32-bit)
    Data encoding: ELFDATA2LSB (Little endian)
    Header version: EV_CURRENT (Current version)
    Operating System ABI: none
    ABI Version: 0
    File Type: ET_EXEC (Executable) (2)
    Machine: EM_ARM (ARM)

    Image Entry point: 0x000003c1
    Flags: EF_ARM_HASENTRY + EF_ARM_ABI_FLOAT_SOFT (0x05000202)

    ARM ELF revision: 5 (ABI version 2)

    Conforms to Soft float procedure-call standard

    Built with
    Component: ARM Compiler 5.06 update 6 (build 750) Tool: armasm [4d35ec]
    Component: ARM Compiler 5.06 update 6 (build 750) Tool: armlink [4d35ed]

    Header size: 52 bytes (0x34)
    Program header entry size: 32 bytes (0x20)
    Section header entry size: 40 bytes (0x28)

    Program header entries: 1
    Section header entries: 16

    Program header offset: 61036 (0x0000ee6c)
    Section header offset: 61068 (0x0000ee8c)

    Section header string table index: 15

========================================================================

** Program header #0 (PT_LOAD) [PF_X + PF_W + PF_R + PF_ARM_ENTRY]
    Size : 3056 bytes (2032 bytes in file)
    Virtual address: 0x00000000 (Alignment 8)


========================================================================

** Section #1 'ER_IROM1' (SHT_PROGBITS) [SHF_ALLOC + SHF_EXECINSTR]
    Size   : 2016 bytes (alignment 4)
    Address: 0x00000000

    $d.realdata
    RESET
    __Vectors
        0x00000000:    20000410    ...     DCD    536871952
        0x00000004:    0000045d    ]...    DCD    1117
        0x00000008:    00000467    g...    DCD    1127
        0x0000000c:    00000465    e...    DCD    1125
        0x00000010:    00000469    i...    DCD    1129
        0x00000014:    0000046b    k...    DCD    1131
        0x00000018:    0000046d    m...    DCD    1133
        0x0000001c:    00000000    ....    DCD    0
        0x00000020:    00000000    ....    DCD    0
        0x00000024:    00000000    ....    DCD    0
        0x00000028:    00000000    ....    DCD    0
        0x0000002c:    0000046f    o...    DCD    1135
        0x00000030:    00000471    q...    DCD    1137
        0x00000034:    00000000    ....    DCD    0
        0x00000038:    00000473    s...    DCD    1139
        0x0000003c:    00000475    u...    DCD    1141
        0x00000040:    00000477    w...    DCD    1143
        0x00000044:    00000479    y...    DCD    1145
        0x00000048:    0000047b    {...    DCD    1147
        0x0000004c:    0000047d    }...    DCD    1149
        0x00000050:    0000047f    ....    DCD    1151
        0x00000054:    00000481    ....    DCD    1153
        0x00000058:    00000483    ....    DCD    1155
        0x0000005c:    00000485    ....    DCD    1157
        0x00000060:    00000487    ....    DCD    1159
        0x00000064:    00000489    ....    DCD    1161
        0x00000068:    00000000    ....    DCD    0
        0x0000006c:    00000000    ....    DCD    0
        0x00000070:    00000000    ....    DCD    0
        0x00000074:    00000000    ....    DCD    0
        0x00000078:    00000000    ....    DCD    0
        0x0000007c:    00000000    ....    DCD    0
        0x00000080:    00000000    ....    DCD    0
        0x00000084:    00000000    ....    DCD    0
        0x00000088:    00000000    ....    DCD    0
        0x0000008c:    00000000    ....    DCD    0
        0x00000090:    00000000    ....    DCD    0
        0x00000094:    00000000    ....    DCD    0
        0x00000098:    00000000    ....    DCD    0
        0x0000009c:    00000000    ....    DCD    0
        0x000000a0:    00000000    ....    DCD    0
        0x000000a4:    00000000    ....    DCD    0
        0x000000a8:    00000000    ....    DCD    0
        0x000000ac:    00000000    ....    DCD    0
        0x000000b0:    00000000    ....    DCD    0
        0x000000b4:    00000000    ....    DCD    0
        0x000000b8:    00000000    ....    DCD    0
        0x000000bc:    00000000    ....    DCD    0
        0x000000c0:    00000000    ....    DCD    0
        0x000000c4:    00000000    ....    DCD    0
        0x000000c8:    00000000    ....    DCD    0
        0x000000cc:    00000000    ....    DCD    0
        0x000000d0:    00000000    ....    DCD    0
        0x000000d4:    00000000    ....    DCD    0
        0x000000d8:    00000000    ....    DCD    0
        0x000000dc:    00000000    ....    DCD    0
        0x000000e0:    00000000    ....    DCD    0
        0x000000e4:    00000000    ....    DCD    0
        0x000000e8:    00000000    ....    DCD    0
        0x000000ec:    00000000    ....    DCD    0
        0x000000f0:    00000000    ....    DCD    0
        0x000000f4:    00000000    ....    DCD    0
        0x000000f8:    00000000    ....    DCD    0
        0x000000fc:    00000000    ....    DCD    0
        0x00000100:    00000000    ....    DCD    0
        0x00000104:    00000000    ....    DCD    0
        0x00000108:    00000000    ....    DCD    0
        0x0000010c:    00000000    ....    DCD    0
        0x00000110:    00000000    ....    DCD    0
        0x00000114:    00000000    ....    DCD    0
        0x00000118:    00000000    ....    DCD    0
        0x0000011c:    00000000    ....    DCD    0
        0x00000120:    00000000    ....    DCD    0
        0x00000124:    00000000    ....    DCD    0
        0x00000128:    00000000    ....    DCD    0
        0x0000012c:    00000000    ....    DCD    0
        0x00000130:    00000000    ....    DCD    0
        0x00000134:    00000000    ....    DCD    0
        0x00000138:    00000000    ....    DCD    0
        0x0000013c:    00000000    ....    DCD    0
        0x00000140:    00000000    ....    DCD    0
        0x00000144:    00000000    ....    DCD    0
        0x00000148:    00000000    ....    DCD    0
        0x0000014c:    00000000    ....    DCD    0
        0x00000150:    00000000    ....    DCD    0
        0x00000154:    00000000    ....    DCD    0
        0x00000158:    00000000    ....    DCD    0
        0x0000015c:    00000000    ....    DCD    0
        0x00000160:    00000000    ....    DCD    0
        0x00000164:    00000000    ....    DCD    0
        0x00000168:    00000000    ....    DCD    0
        0x0000016c:    00000000    ....    DCD    0
        0x00000170:    00000000    ....    DCD    0
        0x00000174:    00000000    ....    DCD    0
        0x00000178:    00000000    ....    DCD    0
        0x0000017c:    00000000    ....    DCD    0
        0x00000180:    00000000    ....    DCD    0
        0x00000184:    00000000    ....    DCD    0
        0x00000188:    00000000    ....    DCD    0
        0x0000018c:    00000000    ....    DCD    0
        0x00000190:    00000000    ....    DCD    0
        0x00000194:    00000000    ....    DCD    0
        0x00000198:    00000000    ....    DCD    0
        0x0000019c:    00000000    ....    DCD    0
        0x000001a0:    00000000    ....    DCD    0
        0x000001a4:    00000000    ....    DCD    0
        0x000001a8:    00000000    ....    DCD    0
        0x000001ac:    00000000    ....    DCD    0
        0x000001b0:    00000000    ....    DCD    0
        0x000001b4:    00000000    ....    DCD    0
        0x000001b8:    00000000    ....    DCD    0
        0x000001bc:    00000000    ....    DCD    0
        0x000001c0:    00000000    ....    DCD    0
        0x000001c4:    00000000    ....    DCD    0
        0x000001c8:    00000000    ....    DCD    0
        0x000001cc:    00000000    ....    DCD    0
        0x000001d0:    00000000    ....    DCD    0
        0x000001d4:    00000000    ....    DCD    0
        0x000001d8:    00000000    ....    DCD    0
        0x000001dc:    00000000    ....    DCD    0
        0x000001e0:    00000000    ....    DCD    0
        0x000001e4:    00000000    ....    DCD    0
        0x000001e8:    00000000    ....    DCD    0
        0x000001ec:    00000000    ....    DCD    0
        0x000001f0:    00000000    ....    DCD    0
        0x000001f4:    00000000    ....    DCD    0
        0x000001f8:    00000000    ....    DCD    0
        0x000001fc:    00000000    ....    DCD    0
        0x00000200:    00000000    ....    DCD    0
        0x00000204:    00000000    ....    DCD    0
        0x00000208:    00000000    ....    DCD    0
        0x0000020c:    00000000    ....    DCD    0
        0x00000210:    00000000    ....    DCD    0
        0x00000214:    00000000    ....    DCD    0
        0x00000218:    00000000    ....    DCD    0
        0x0000021c:    00000000    ....    DCD    0
        0x00000220:    00000000    ....    DCD    0
        0x00000224:    00000000    ....    DCD    0
        0x00000228:    00000000    ....    DCD    0
        0x0000022c:    00000000    ....    DCD    0
        0x00000230:    00000000    ....    DCD    0
        0x00000234:    00000000    ....    DCD    0
        0x00000238:    00000000    ....    DCD    0
        0x0000023c:    00000000    ....    DCD    0
        0x00000240:    00000000    ....    DCD    0
        0x00000244:    00000000    ....    DCD    0
        0x00000248:    00000000    ....    DCD    0
        0x0000024c:    00000000    ....    DCD    0
        0x00000250:    00000000    ....    DCD    0
        0x00000254:    00000000    ....    DCD    0
        0x00000258:    00000000    ....    DCD    0
        0x0000025c:    00000000    ....    DCD    0
        0x00000260:    00000000    ....    DCD    0
        0x00000264:    00000000    ....    DCD    0
        0x00000268:    00000000    ....    DCD    0
        0x0000026c:    00000000    ....    DCD    0
        0x00000270:    00000000    ....    DCD    0
        0x00000274:    00000000    ....    DCD    0
        0x00000278:    00000000    ....    DCD    0
        0x0000027c:    00000000    ....    DCD    0
        0x00000280:    00000000    ....    DCD    0
        0x00000284:    00000000    ....    DCD    0
        0x00000288:    00000000    ....    DCD    0
        0x0000028c:    00000000    ....    DCD    0
        0x00000290:    00000000    ....    DCD    0
        0x00000294:    00000000    ....    DCD    0
        0x00000298:    00000000    ....    DCD    0
        0x0000029c:    00000000    ....    DCD    0
        0x000002a0:    00000000    ....    DCD    0
        0x000002a4:    00000000    ....    DCD    0
        0x000002a8:    00000000    ....    DCD    0
        0x000002ac:    00000000    ....    DCD    0
        0x000002b0:    00000000    ....    DCD    0
        0x000002b4:    00000000    ....    DCD    0
        0x000002b8:    00000000    ....    DCD    0
        0x000002bc:    00000000    ....    DCD    0
        0x000002c0:    00000000    ....    DCD    0
        0x000002c4:    00000000    ....    DCD    0
        0x000002c8:    00000000    ....    DCD    0
        0x000002cc:    00000000    ....    DCD    0
        0x000002d0:    00000000    ....    DCD    0
        0x000002d4:    00000000    ....    DCD    0
        0x000002d8:    00000000    ....    DCD    0
        0x000002dc:    00000000    ....    DCD    0
        0x000002e0:    00000000    ....    DCD    0
        0x000002e4:    00000000    ....    DCD    0
        0x000002e8:    00000000    ....    DCD    0
        0x000002ec:    00000000    ....    DCD    0
        0x000002f0:    00000000    ....    DCD    0
        0x000002f4:    00000000    ....    DCD    0
        0x000002f8:    00000000    ....    DCD    0
        0x000002fc:    00000000    ....    DCD    0
        0x00000300:    00000000    ....    DCD    0
        0x00000304:    00000000    ....    DCD    0
        0x00000308:    00000000    ....    DCD    0
        0x0000030c:    00000000    ....    DCD    0
        0x00000310:    00000000    ....    DCD    0
        0x00000314:    00000000    ....    DCD    0
        0x00000318:    00000000    ....    DCD    0
        0x0000031c:    00000000    ....    DCD    0
        0x00000320:    00000000    ....    DCD    0
        0x00000324:    00000000    ....    DCD    0
        0x00000328:    00000000    ....    DCD    0
        0x0000032c:    00000000    ....    DCD    0
        0x00000330:    00000000    ....    DCD    0
        0x00000334:    00000000    ....    DCD    0
        0x00000338:    00000000    ....    DCD    0
        0x0000033c:    00000000    ....    DCD    0
        0x00000340:    00000000    ....    DCD    0
        0x00000344:    00000000    ....    DCD    0
        0x00000348:    00000000    ....    DCD    0
        0x0000034c:    00000000    ....    DCD    0
        0x00000350:    00000000    ....    DCD    0
        0x00000354:    00000000    ....    DCD    0
        0x00000358:    00000000    ....    DCD    0
        0x0000035c:    00000000    ....    DCD    0
        0x00000360:    00000000    ....    DCD    0
        0x00000364:    00000000    ....    DCD    0
        0x00000368:    00000000    ....    DCD    0
        0x0000036c:    00000000    ....    DCD    0
        0x00000370:    00000000    ....    DCD    0
        0x00000374:    00000000    ....    DCD    0
        0x00000378:    00000000    ....    DCD    0
        0x0000037c:    00000000    ....    DCD    0
        0x00000380:    00000000    ....    DCD    0
        0x00000384:    00000000    ....    DCD    0
        0x00000388:    00000000    ....    DCD    0
        0x0000038c:    00000000    ....    DCD    0
        0x00000390:    00000000    ....    DCD    0
        0x00000394:    00000000    ....    DCD    0
        0x00000398:    00000000    ....    DCD    0
        0x0000039c:    00000000    ....    DCD    0
        0x000003a0:    00000000    ....    DCD    0
        0x000003a4:    00000000    ....    DCD    0
        0x000003a8:    00000000    ....    DCD    0
        0x000003ac:    00000000    ....    DCD    0
        0x000003b0:    00000000    ....    DCD    0
        0x000003b4:    00000000    ....    DCD    0
        0x000003b8:    00000000    ....    DCD    0
        0x000003bc:    00000000    ....    DCD    0
    $t
    !!!main
    __Vectors_End
    __main
        0x000003c0:    f000f802    ....    BL       __scatterload ; 0x3c8
        0x000003c4:    f000f83a    ..:.    BL       __rt_entry ; 0x43c
    !!!scatter
    __scatterload
    __scatterload_rt2
    __scatterload_rt2_thumb_only
        0x000003c8:    a00a        ..      ADR      r0,{pc}+0x2c ; 0x3f4
        0x000003ca:    e8900c00    ....    LDM      r0,{r10,r11}
        0x000003ce:    4482        .D      ADD      r10,r10,r0
        0x000003d0:    4483        .D      ADD      r11,r11,r0
        0x000003d2:    f1aa0701    ....    SUB      r7,r10,#1
    __scatterload_null
        0x000003d6:    45da        .E      CMP      r10,r11
        0x000003d8:    d101        ..      BNE      0x3de ; __scatterload_null + 8
        0x000003da:    f000f82f    ../.    BL       __rt_entry ; 0x43c
        0x000003de:    f2af0e09    ....    ADR      lr,{pc}-7 ; 0x3d7
        0x000003e2:    e8ba000f    ....    LDM      r10!,{r0-r3}
        0x000003e6:    f0130f01    ....    TST      r3,#1
        0x000003ea:    bf18        ..      IT       NE
        0x000003ec:    1afb        ..      SUBNE    r3,r7,r3
        0x000003ee:    f0430301    C...    ORR      r3,r3,#1
        0x000003f2:    4718        .G      BX       r3
    $d
        0x000003f4:    000003cc    ....    DCD    972
        0x000003f8:    000003ec    ....    DCD    1004
    $t
    !!handler_copy
    __scatterload_copy
        0x000003fc:    3a10        .:      SUBS     r2,r2,#0x10
        0x000003fe:    bf24        $.      ITT      CS
        0x00000400:    c878        x.      LDMCS    r0!,{r3-r6}
        0x00000402:    c178        x.      STMCS    r1!,{r3-r6}
        0x00000404:    d8fa        ..      BHI      __scatterload_copy ; 0x3fc
        0x00000406:    0752        R.      LSLS     r2,r2,#29
        0x00000408:    bf24        $.      ITT      CS
        0x0000040a:    c830        0.      LDMCS    r0!,{r4,r5}
        0x0000040c:    c130        0.      STMCS    r1!,{r4,r5}
        0x0000040e:    bf44        D.      ITT      MI
        0x00000410:    6804        .h      LDRMI    r4,[r0,#0]
        0x00000412:    600c        .`      STRMI    r4,[r1,#0]
        0x00000414:    4770        pG      BX       lr
        0x00000416:    0000        ..      MOVS     r0,r0
    !!handler_zi
    __scatterload_zeroinit
        0x00000418:    2300        .#      MOVS     r3,#0
        0x0000041a:    2400        .$      MOVS     r4,#0
        0x0000041c:    2500        .%      MOVS     r5,#0
        0x0000041e:    2600        .&      MOVS     r6,#0
        0x00000420:    3a10        .:      SUBS     r2,r2,#0x10
        0x00000422:    bf28        (.      IT       CS
        0x00000424:    c178        x.      STMCS    r1!,{r3-r6}
        0x00000426:    d8fb        ..      BHI      0x420 ; __scatterload_zeroinit + 8
        0x00000428:    0752        R.      LSLS     r2,r2,#29
        0x0000042a:    bf28        (.      IT       CS
        0x0000042c:    c130        0.      STMCS    r1!,{r4,r5}
        0x0000042e:    bf48        H.      IT       MI
        0x00000430:    600b        .`      STRMI    r3,[r1,#0]
        0x00000432:    4770        pG      BX       lr
    .ARM.Collect$$libinit$$00000000
    __rt_lib_init
        0x00000434:    b51f        ..      PUSH     {r0-r4,lr}
    .ARM.Collect$$libinit$$00000002
    .ARM.Collect$$libinit$$00000004
    .ARM.Collect$$libinit$$0000000A
    .ARM.Collect$$libinit$$0000000C
    .ARM.Collect$$libinit$$0000000E
    .ARM.Collect$$libinit$$00000011
    .ARM.Collect$$libinit$$00000013
    .ARM.Collect$$libinit$$00000015
    .ARM.Collect$$libinit$$00000017
    .ARM.Collect$$libinit$$00000019
    .ARM.Collect$$libinit$$0000001B
    .ARM.Collect$$libinit$$0000001D
    .ARM.Collect$$libinit$$0000001F
    .ARM.Collect$$libinit$$00000021
    .ARM.Collect$$libinit$$00000023
    .ARM.Collect$$libinit$$00000025
    .ARM.Collect$$libinit$$0000002C
    .ARM.Collect$$libinit$$0000002E
    .ARM.Collect$$libinit$$00000030
    .ARM.Collect$$libinit$$00000032
    .ARM.Collect$$libinit$$00000033
    __rt_lib_init_alloca_1
    __rt_lib_init_argv_1
    __rt_lib_init_atexit_1
    __rt_lib_init_clock_1
    __rt_lib_init_cpp_1
    __rt_lib_init_exceptions_1
    __rt_lib_init_fp_1
    __rt_lib_init_fp_trap_1
    __rt_lib_init_getenv_1
    __rt_lib_init_heap_1
    __rt_lib_init_lc_collate_1
    __rt_lib_init_lc_ctype_1
    __rt_lib_init_lc_monetary_1
    __rt_lib_init_lc_numeric_1
    __rt_lib_init_lc_time_1
    __rt_lib_init_preinit_1
    __rt_lib_init_rand_1
    __rt_lib_init_return
    __rt_lib_init_signal_1
    __rt_lib_init_stdio_1
    __rt_lib_init_user_alloc_1
        0x00000436:    bd1f        ..      POP      {r0-r4,pc}
    .ARM.Collect$$libshutdown$$00000000
    __rt_lib_shutdown
        0x00000438:    b510        ..      PUSH     {r4,lr}
    .ARM.Collect$$libshutdown$$00000002
    .ARM.Collect$$libshutdown$$00000004
    .ARM.Collect$$libshutdown$$00000007
    .ARM.Collect$$libshutdown$$0000000A
    .ARM.Collect$$libshutdown$$0000000C
    .ARM.Collect$$libshutdown$$0000000F
    .ARM.Collect$$libshutdown$$00000010
    __rt_lib_shutdown_cpp_1
    __rt_lib_shutdown_fp_trap_1
    __rt_lib_shutdown_heap_1
    __rt_lib_shutdown_return
    __rt_lib_shutdown_signal_1
    __rt_lib_shutdown_stdio_1
    __rt_lib_shutdown_user_alloc_1
        0x0000043a:    bd10        ..      POP      {r4,pc}
    .ARM.Collect$$rtentry$$00000000
    .ARM.Collect$$rtentry$$00000002
    .ARM.Collect$$rtentry$$00000005
    __rt_entry
    __rt_entry_presh_1
    __rt_entry_sh
        0x0000043c:    f8dfd00c    ....    LDR      sp,__lit__00000000 ; [0x44c] = 0x20000410
    .ARM.Collect$$rtentry$$00000009
    .ARM.Collect$$rtentry$$0000000A
    __rt_entry_li
    __rt_entry_postsh_1
        0x00000440:    f7fffff8    ....    BL       __rt_lib_init ; 0x434
    .ARM.Collect$$rtentry$$0000000C
    .ARM.Collect$$rtentry$$0000000D
    __rt_entry_main
    __rt_entry_postli_1
        0x00000444:    f000f9ac    ....    BL       main ; 0x7a0
        0x00000448:    f000f872    ..r.    BL       exit ; 0x530
    $d
    .ARM.Collect$$rtentry$$00002716
    __lit__00000000
        0x0000044c:    20000410    ...     DCD    536871952
    $t
    .ARM.Collect$$rtexit$$00000000
    __rt_exit
        0x00000450:    b403        ..      PUSH     {r0,r1}
    .ARM.Collect$$rtexit$$00000002
    .ARM.Collect$$rtexit$$00000003
    __rt_exit_ls
    __rt_exit_prels_1
        0x00000452:    f7fffff1    ....    BL       __rt_lib_shutdown ; 0x438
    .ARM.Collect$$rtexit$$00000004
    __rt_exit_exit
        0x00000456:    bc03        ..      POP      {r0,r1}
        0x00000458:    f000f980    ....    BL       _sys_exit ; 0x75c
    .text
    Reset_Handler
        0x0000045c:    480b        .H      LDR      r0,[pc,#44] ; [0x48c] = 0x73d
        0x0000045e:    4780        .G      BLX      r0
        0x00000460:    480b        .H      LDR      r0,[pc,#44] ; [0x490] = 0x3c1
        0x00000462:    4700        .G      BX       r0
    HardFault_Handler
        0x00000464:    e7fe        ..      B        HardFault_Handler ; 0x464
    NMI_Handler
        0x00000466:    e7fe        ..      B        NMI_Handler ; 0x466
    MemManage_Handler
        0x00000468:    e7fe        ..      B        MemManage_Handler ; 0x468
    BusFault_Handler
        0x0000046a:    e7fe        ..      B        BusFault_Handler ; 0x46a
    UsageFault_Handler
        0x0000046c:    e7fe        ..      B        UsageFault_Handler ; 0x46c
    SVC_Handler
        0x0000046e:    e7fe        ..      B        SVC_Handler ; 0x46e
    DebugMon_Handler
        0x00000470:    e7fe        ..      B        DebugMon_Handler ; 0x470
    PendSV_Handler
        0x00000472:    e7fe        ..      B        PendSV_Handler ; 0x472
    SysTick_Handler
        0x00000474:    e7fe        ..      B        SysTick_Handler ; 0x474
    Interrupt0_Handler
        0x00000476:    e7fe        ..      B        Interrupt0_Handler ; 0x476
    Interrupt1_Handler
        0x00000478:    e7fe        ..      B        Interrupt1_Handler ; 0x478
    Interrupt2_Handler
        0x0000047a:    e7fe        ..      B        Interrupt2_Handler ; 0x47a
    Interrupt3_Handler
        0x0000047c:    e7fe        ..      B        Interrupt3_Handler ; 0x47c
    Interrupt4_Handler
        0x0000047e:    e7fe        ..      B        Interrupt4_Handler ; 0x47e
    Interrupt5_Handler
        0x00000480:    e7fe        ..      B        Interrupt5_Handler ; 0x480
    Interrupt6_Handler
        0x00000482:    e7fe        ..      B        Interrupt6_Handler ; 0x482
    Interrupt7_Handler
        0x00000484:    e7fe        ..      B        Interrupt7_Handler ; 0x484
    Interrupt8_Handler
        0x00000486:    e7fe        ..      B        Interrupt8_Handler ; 0x486
    Interrupt9_Handler
        0x00000488:    e7fe        ..      B        Interrupt9_Handler ; 0x488
    $d
        0x0000048a:    0000        ..      DCW    0
        0x0000048c:    0000073d    =...    DCD    1853
        0x00000490:    000003c1    ....    DCD    961
    $t
    .text
    __2printf
        0x00000494:    b40f        ..      PUSH     {r0-r3}
        0x00000496:    4904        .I      LDR      r1,[pc,#16] ; [0x4a8] = 0x20000000
        0x00000498:    b510        ..      PUSH     {r4,lr}
        0x0000049a:    aa03        ..      ADD      r2,sp,#0xc
        0x0000049c:    9802        ..      LDR      r0,[sp,#8]
        0x0000049e:    f000f809    ....    BL       _printf_char_file ; 0x4b4
        0x000004a2:    bc10        ..      POP      {r4}
        0x000004a4:    f85dfb14    ]...    LDR      pc,[sp],#0x14
    $d
        0x000004a8:    20000000    ...     DCD    536870912
    $t
    .text
    __use_two_region_memory
        0x000004ac:    4770        pG      BX       lr
    __rt_heap_escrow$2region
        0x000004ae:    4770        pG      BX       lr
    __rt_heap_expand$2region
        0x000004b0:    4770        pG      BX       lr
        0x000004b2:    0000        ..      MOVS     r0,r0
    .text
    _printf_char_file
        0x000004b4:    4b07        .K      LDR      r3,[pc,#28] ; [0x4d4] = 0x2ab
        0x000004b6:    b570        p.      PUSH     {r4-r6,lr}
        0x000004b8:    460d        .F      MOV      r5,r1
        0x000004ba:    447b        {D      ADD      r3,r3,pc
        0x000004bc:    f000f811    ....    BL       _printf_char_common ; 0x4e2
        0x000004c0:    4604        .F      MOV      r4,r0
        0x000004c2:    4628        (F      MOV      r0,r5
        0x000004c4:    f000f94c    ..L.    BL       ferror ; 0x760
        0x000004c8:    b110        ..      CBZ      r0,0x4d0 ; _printf_char_file + 28
        0x000004ca:    f04f30ff    O..0    MOV      r0,#0xffffffff
        0x000004ce:    bd70        p.      POP      {r4-r6,pc}
        0x000004d0:    4620         F      MOV      r0,r4
        0x000004d2:    bd70        p.      POP      {r4-r6,pc}
    $d
        0x000004d4:    000002ab    ....    DCD    683
    $t
    .text
    _printf_input_char
        0x000004d8:    6901        .i      LDR      r1,[r0,#0x10]
        0x000004da:    1c4a        J.      ADDS     r2,r1,#1
        0x000004dc:    6102        .a      STR      r2,[r0,#0x10]
        0x000004de:    7808        .x      LDRB     r0,[r1,#0]
        0x000004e0:    4770        pG      BX       lr
    _printf_char_common
        0x000004e2:    b500        ..      PUSH     {lr}
        0x000004e4:    b08f        ..      SUB      sp,sp,#0x3c
        0x000004e6:    e9cd3101    ...1    STRD     r3,r1,[sp,#4]
        0x000004ea:    2100        .!      MOVS     r1,#0
        0x000004ec:    9105        ..      STR      r1,[sp,#0x14]
        0x000004ee:    4905        .I      LDR      r1,[pc,#20] ; [0x504] = 0xffffffe5
        0x000004f0:    4479        yD      ADD      r1,r1,pc
        0x000004f2:    e9cd1003    ....    STRD     r1,r0,[sp,#0xc]
        0x000004f6:    4611        .F      MOV      r1,r2
        0x000004f8:    4668        hF      MOV      r0,sp
        0x000004fa:    f000f805    ....    BL       __printf ; 0x508
        0x000004fe:    b00f        ..      ADD      sp,sp,#0x3c
        0x00000500:    bd00        ..      POP      {pc}
    $d
        0x00000502:    0000        ..      DCW    0
        0x00000504:    ffffffe5    ....    DCD    4294967269
    $t
    .text
    __printf
        0x00000508:    e92d41f0    -..A    PUSH     {r4-r8,lr}
        0x0000050c:    4606        .F      MOV      r6,r0
        0x0000050e:    2400        .$      MOVS     r4,#0
        0x00000510:    e9d67001    ...p    LDRD     r7,r0,[r6,#4]
        0x00000514:    68f5        .h      LDR      r5,[r6,#0xc]
        0x00000516:    4680        .F      MOV      r8,r0
        0x00000518:    4630        0F      MOV      r0,r6
        0x0000051a:    e003        ..      B        0x524 ; __printf + 28
        0x0000051c:    4641        AF      MOV      r1,r8
        0x0000051e:    47b8        .G      BLX      r7
        0x00000520:    1c64        d.      ADDS     r4,r4,#1
        0x00000522:    4630        0F      MOV      r0,r6
        0x00000524:    47a8        .G      BLX      r5
        0x00000526:    2800        .(      CMP      r0,#0
        0x00000528:    d1f8        ..      BNE      0x51c ; __printf + 20
        0x0000052a:    4620         F      MOV      r0,r4
        0x0000052c:    e8bd81f0    ....    POP      {r4-r8,pc}
    .text
    exit
        0x00000530:    b510        ..      PUSH     {r4,lr}
        0x00000532:    4604        .F      MOV      r4,r0
        0x00000534:    f3af8000    ....    NOP.W    
        0x00000538:    4620         F      MOV      r0,r4
        0x0000053a:    e8bd4010    ...@    POP      {r4,lr}
        0x0000053e:    f7ffbf87    ....    B.W      __rt_exit ; 0x450
        0x00000542:    0000        ..      MOVS     r0,r0
    i.DisplayCo2Level
    DisplayCo2Level
        0x00000544:    b510        ..      PUSH     {r4,lr}
        0x00000546:    4604        .F      MOV      r4,r0
        0x00000548:    b124        $.      CBZ      r4,0x554 ; DisplayCo2Level + 16
        0x0000054a:    2c01        .,      CMP      r4,#1
        0x0000054c:    d006        ..      BEQ      0x55c ; DisplayCo2Level + 24
        0x0000054e:    2c02        .,      CMP      r4,#2
        0x00000550:    d10c        ..      BNE      0x56c ; DisplayCo2Level + 40
        0x00000552:    e007        ..      B        0x564 ; DisplayCo2Level + 32
        0x00000554:    a008        ..      ADR      r0,{pc}+0x24 ; 0x578
        0x00000556:    f7ffff9d    ....    BL       __2printf ; 0x494
        0x0000055a:    e00b        ..      B        0x574 ; DisplayCo2Level + 48
        0x0000055c:    a010        ..      ADR      r0,{pc}+0x44 ; 0x5a0
        0x0000055e:    f7ffff99    ....    BL       __2printf ; 0x494
        0x00000562:    e007        ..      B        0x574 ; DisplayCo2Level + 48
        0x00000564:    a017        ..      ADR      r0,{pc}+0x60 ; 0x5c4
        0x00000566:    f7ffff95    ....    BL       __2printf ; 0x494
        0x0000056a:    e003        ..      B        0x574 ; DisplayCo2Level + 48
        0x0000056c:    a01e        ..      ADR      r0,{pc}+0x7c ; 0x5e8
        0x0000056e:    f7ffff91    ....    BL       __2printf ; 0x494
        0x00000572:    bf00        ..      NOP      
        0x00000574:    bf00        ..      NOP      
        0x00000576:    bd10        ..      POP      {r4,pc}
    $d
        0x00000578:    20656854    The     DCD    543516756
        0x0000057c:    20726961    air     DCD    544368993
        0x00000580:    6c617571    qual    DCD    1818326385
        0x00000584:    20797469    ity     DCD    544830569
        0x00000588:    6320666f    of c    DCD    1663067759
        0x0000058c:    6920326f    o2 i    DCD    1763717743
        0x00000590:    78652073    s ex    DCD    2019893363
        0x00000594:    6c6c6563    cell    DCD    1819043171
        0x00000598:    2e746e65    ent.    DCD    779382373
        0x0000059c:    0000000a    ....    DCD    10
        0x000005a0:    20656854    The     DCD    543516756
        0x000005a4:    20726961    air     DCD    544368993
        0x000005a8:    6c617571    qual    DCD    1818326385
        0x000005ac:    20797469    ity     DCD    544830569
        0x000005b0:    6320666f    of c    DCD    1663067759
        0x000005b4:    6920326f    o2 i    DCD    1763717743
        0x000005b8:    6f672073    s go    DCD    1869029491
        0x000005bc:    0a2e646f    od..    DCD    170812527
        0x000005c0:    00000000    ....    DCD    0
        0x000005c4:    20656854    The     DCD    543516756
        0x000005c8:    20726961    air     DCD    544368993
        0x000005cc:    6c617571    qual    DCD    1818326385
        0x000005d0:    20797469    ity     DCD    544830569
        0x000005d4:    6320666f    of c    DCD    1663067759
        0x000005d8:    6920326f    o2 i    DCD    1763717743
        0x000005dc:    76612073    s av    DCD    1986076787
        0x000005e0:    67617265    erag    DCD    1734439525
        0x000005e4:    000a2e65    e...    DCD    667237
        0x000005e8:    20656854    The     DCD    543516756
        0x000005ec:    20726961    air     DCD    544368993
        0x000005f0:    6c617571    qual    DCD    1818326385
        0x000005f4:    20797469    ity     DCD    544830569
        0x000005f8:    6320666f    of c    DCD    1663067759
        0x000005fc:    6920326f    o2 i    DCD    1763717743
        0x00000600:    6f702073    s po    DCD    1869619315
        0x00000604:    0a2e726f    or..    DCD    170816111
        0x00000608:    00000000    ....    DCD    0
    $t
    i.DisplayPm25Level
    DisplayPm25Level
        0x0000060c:    b510        ..      PUSH     {r4,lr}
        0x0000060e:    4604        .F      MOV      r4,r0
        0x00000610:    b124        $.      CBZ      r4,0x61c ; DisplayPm25Level + 16
        0x00000612:    2c01        .,      CMP      r4,#1
        0x00000614:    d006        ..      BEQ      0x624 ; DisplayPm25Level + 24
        0x00000616:    2c02        .,      CMP      r4,#2
        0x00000618:    d10c        ..      BNE      0x634 ; DisplayPm25Level + 40
        0x0000061a:    e007        ..      B        0x62c ; DisplayPm25Level + 32
        0x0000061c:    a008        ..      ADR      r0,{pc}+0x24 ; 0x640
        0x0000061e:    f7ffff39    ..9.    BL       __2printf ; 0x494
        0x00000622:    e00b        ..      B        0x63c ; DisplayPm25Level + 48
        0x00000624:    a010        ..      ADR      r0,{pc}+0x44 ; 0x668
        0x00000626:    f7ffff35    ..5.    BL       __2printf ; 0x494
        0x0000062a:    e007        ..      B        0x63c ; DisplayPm25Level + 48
        0x0000062c:    a017        ..      ADR      r0,{pc}+0x60 ; 0x68c
        0x0000062e:    f7ffff31    ..1.    BL       __2printf ; 0x494
        0x00000632:    e003        ..      B        0x63c ; DisplayPm25Level + 48
        0x00000634:    a01f        ..      ADR      r0,{pc}+0x80 ; 0x6b4
        0x00000636:    f7ffff2d    ..-.    BL       __2printf ; 0x494
        0x0000063a:    bf00        ..      NOP      
        0x0000063c:    bf00        ..      NOP      
        0x0000063e:    bd10        ..      POP      {r4,pc}
    $d
        0x00000640:    20656854    The     DCD    543516756
        0x00000644:    20726961    air     DCD    544368993
        0x00000648:    6c617571    qual    DCD    1818326385
        0x0000064c:    20797469    ity     DCD    544830569
        0x00000650:    7020666f    of p    DCD    1881171567
        0x00000654:    352e326d    m2.5    DCD    892220013
        0x00000658:    20736920     is     DCD    544434464
        0x0000065c:    65637865    exce    DCD    1701017701
        0x00000660:    6e656c6c    llen    DCD    1852140652
        0x00000664:    000a2e74    t...    DCD    667252
        0x00000668:    20656854    The     DCD    543516756
        0x0000066c:    20726961    air     DCD    544368993
        0x00000670:    6c617571    qual    DCD    1818326385
        0x00000674:    20797469    ity     DCD    544830569
        0x00000678:    7020666f    of p    DCD    1881171567
        0x0000067c:    352e326d    m2.5    DCD    892220013
        0x00000680:    20736920     is     DCD    544434464
        0x00000684:    646f6f67    good    DCD    1685024615
        0x00000688:    00000a2e    ....    DCD    2606
        0x0000068c:    20656854    The     DCD    543516756
        0x00000690:    20726961    air     DCD    544368993
        0x00000694:    6c617571    qual    DCD    1818326385
        0x00000698:    20797469    ity     DCD    544830569
        0x0000069c:    7020666f    of p    DCD    1881171567
        0x000006a0:    352e326d    m2.5    DCD    892220013
        0x000006a4:    20736920     is     DCD    544434464
        0x000006a8:    72657661    aver    DCD    1919252065
        0x000006ac:    2e656761    age.    DCD    778397537
        0x000006b0:    0000000a    ....    DCD    10
        0x000006b4:    20656854    The     DCD    543516756
        0x000006b8:    20726961    air     DCD    544368993
        0x000006bc:    6c617571    qual    DCD    1818326385
        0x000006c0:    20797469    ity     DCD    544830569
        0x000006c4:    7020666f    of p    DCD    1881171567
        0x000006c8:    352e326d    m2.5    DCD    892220013
        0x000006cc:    20736920     is     DCD    544434464
        0x000006d0:    726f6f70    poor    DCD    1919905648
        0x000006d4:    00000a2e    ....    DCD    2606
    $t
    i.GetCo2Level
    GetCo2Level
        0x000006d8:    b51c        ..      PUSH     {r2-r4,lr}
        0x000006da:    f000f82a    ..*.    BL       GetRawData ; 0x732
        0x000006de:    9001        ..      STR      r0,[sp,#4]
        0x000006e0:    2164        d!      MOVS     r1,#0x64
        0x000006e2:    9801        ..      LDR      r0,[sp,#4]
        0x000006e4:    fb90f0f1    ....    SDIV     r0,r0,r1
        0x000006e8:    9000        ..      STR      r0,[sp,#0]
        0x000006ea:    9800        ..      LDR      r0,[sp,#0]
        0x000006ec:    b2c0        ..      UXTB     r0,r0
        0x000006ee:    bd1c        ..      POP      {r2-r4,pc}
    i.GetPm25Level
    GetPm25Level
        0x000006f0:    b51c        ..      PUSH     {r2-r4,lr}
        0x000006f2:    f000f821    ..!.    BL       GetRawData ; 0x738
        0x000006f6:    9001        ..      STR      r0,[sp,#4]
        0x000006f8:    9801        ..      LDR      r0,[sp,#4]
        0x000006fa:    280a        .(      CMP      r0,#0xa
        0x000006fc:    da02        ..      BGE      0x704 ; GetPm25Level + 20
        0x000006fe:    2000        .       MOVS     r0,#0
        0x00000700:    9000        ..      STR      r0,[sp,#0]
        0x00000702:    e013        ..      B        0x72c ; GetPm25Level + 60
        0x00000704:    9801        ..      LDR      r0,[sp,#4]
        0x00000706:    280a        .(      CMP      r0,#0xa
        0x00000708:    db05        ..      BLT      0x716 ; GetPm25Level + 38
        0x0000070a:    9801        ..      LDR      r0,[sp,#4]
        0x0000070c:    2823        #(      CMP      r0,#0x23
        0x0000070e:    da02        ..      BGE      0x716 ; GetPm25Level + 38
        0x00000710:    2001        .       MOVS     r0,#1
        0x00000712:    9000        ..      STR      r0,[sp,#0]
        0x00000714:    e00a        ..      B        0x72c ; GetPm25Level + 60
        0x00000716:    9801        ..      LDR      r0,[sp,#4]
        0x00000718:    2823        #(      CMP      r0,#0x23
        0x0000071a:    db05        ..      BLT      0x728 ; GetPm25Level + 56
        0x0000071c:    9801        ..      LDR      r0,[sp,#4]
        0x0000071e:    284b        K(      CMP      r0,#0x4b
        0x00000720:    da02        ..      BGE      0x728 ; GetPm25Level + 56
        0x00000722:    2002        .       MOVS     r0,#2
        0x00000724:    9000        ..      STR      r0,[sp,#0]
        0x00000726:    e001        ..      B        0x72c ; GetPm25Level + 60
        0x00000728:    2003        .       MOVS     r0,#3
        0x0000072a:    9000        ..      STR      r0,[sp,#0]
        0x0000072c:    f89d0000    ....    LDRB     r0,[sp,#0]
        0x00000730:    bd1c        ..      POP      {r2-r4,pc}
    i.GetRawData
    GetRawData
        0x00000732:    f44f70fa    O..p    MOV      r0,#0x1f4
        0x00000736:    4770        pG      BX       lr
    i.GetRawData
    GetRawData
        0x00000738:    2032        2       MOVS     r0,#0x32
        0x0000073a:    4770        pG      BX       lr
    i.SystemInit
    SystemInit
        0x0000073c:    4803        .H      LDR      r0,[pc,#12] ; [0x74c] = 0
        0x0000073e:    4904        .I      LDR      r1,[pc,#16] ; [0x750] = 0xe000ed08
        0x00000740:    6008        .`      STR      r0,[r1,#0]
        0x00000742:    4804        .H      LDR      r0,[pc,#16] ; [0x754] = 0x17d7840
        0x00000744:    4904        .I      LDR      r1,[pc,#16] ; [0x758] = 0x2000000c
        0x00000746:    6008        .`      STR      r0,[r1,#0]
        0x00000748:    4770        pG      BX       lr
    $d
        0x0000074a:    0000        ..      DCW    0
        0x0000074c:    00000000    ....    DCD    0
        0x00000750:    e000ed08    ....    DCD    3758157064
        0x00000754:    017d7840    @x}.    DCD    25000000
        0x00000758:    2000000c    ...     DCD    536870924
    $t
    i._sys_exit
    _sys_exit
        0x0000075c:    bf00        ..      NOP      
        0x0000075e:    e7fe        ..      B        0x75e ; _sys_exit + 2
    i.ferror
    ferror
        0x00000760:    4601        .F      MOV      r1,r0
        0x00000762:    f04f30ff    O..0    MOV      r0,#0xffffffff
        0x00000766:    4770        pG      BX       lr
    i.fputc
    fputc
        0x00000768:    b510        ..      PUSH     {r4,lr}
        0x0000076a:    4602        .F      MOV      r2,r0
        0x0000076c:    4610        .F      MOV      r0,r2
        0x0000076e:    4b0b        .K      LDR      r3,[pc,#44] ; [0x79c] = 0xe0000e80
        0x00000770:    681b        .h      LDR      r3,[r3,#0]
        0x00000772:    f0030301    ....    AND      r3,r3,#1
        0x00000776:    b17b        {.      CBZ      r3,0x798 ; fputc + 48
        0x00000778:    4b08        .K      LDR      r3,[pc,#32] ; [0x79c] = 0xe0000e80
        0x0000077a:    3b80        .;      SUBS     r3,r3,#0x80
        0x0000077c:    681b        .h      LDR      r3,[r3,#0]
        0x0000077e:    f0030301    ....    AND      r3,r3,#1
        0x00000782:    b14b        K.      CBZ      r3,0x798 ; fputc + 48
        0x00000784:    e000        ..      B        0x788 ; fputc + 32
        0x00000786:    bf00        ..      NOP      
        0x00000788:    f04f4360    O.`C    MOV      r3,#0xe0000000
        0x0000078c:    681b        .h      LDR      r3,[r3,#0]
        0x0000078e:    2b00        .+      CMP      r3,#0
        0x00000790:    d0f9        ..      BEQ      0x786 ; fputc + 30
        0x00000792:    f04f4460    O.`D    MOV      r4,#0xe0000000
        0x00000796:    7020         p      STRB     r0,[r4,#0]
        0x00000798:    bf00        ..      NOP      
        0x0000079a:    bd10        ..      POP      {r4,pc}
    $d
        0x0000079c:    e0000e80    ....    DCD    3758100096
    $t
    i.main
    main
        0x000007a0:    b570        p.      PUSH     {r4-r6,lr}
        0x000007a2:    f7ffff99    ....    BL       GetCo2Level ; 0x6d8
        0x000007a6:    4604        .F      MOV      r4,r0
        0x000007a8:    4620         F      MOV      r0,r4
        0x000007aa:    f7fffecb    ....    BL       DisplayCo2Level ; 0x544
        0x000007ae:    f7ffff9f    ....    BL       GetPm25Level ; 0x6f0
        0x000007b2:    4605        .F      MOV      r5,r0
        0x000007b4:    4628        (F      MOV      r0,r5
        0x000007b6:    f7ffff29    ..).    BL       DisplayPm25Level ; 0x60c
        0x000007ba:    2000        .       MOVS     r0,#0
        0x000007bc:    bd70        p.      POP      {r4-r6,pc}
        0x000007be:    0000        ..      MOVS     r0,r0
    $d.realdata
    Region$$Table$$Base
        0x000007c0:    000007e0    ....    DCD    2016
        0x000007c4:    20000000    ...     DCD    536870912
        0x000007c8:    00000010    ....    DCD    16
        0x000007cc:    000003fc    ....    DCD    1020
        0x000007d0:    000007f0    ....    DCD    2032
        0x000007d4:    20000010    ...     DCD    536870928
        0x000007d8:    00000400    ....    DCD    1024
        0x000007dc:    00000418    ....    DCD    1048
    Region$$Table$$Limit

** Section #2 'RW_IRAM1' (SHT_PROGBITS) [SHF_ALLOC + SHF_WRITE]
    Size   : 16 bytes (alignment 4)
    Address: 0x20000000


** Section #3 'RW_IRAM1' (SHT_NOBITS) [SHF_ALLOC + SHF_WRITE]
    Size   : 1024 bytes (alignment 8)
    Address: 0x20000010


** Section #4 '.debug_abbrev' (SHT_PROGBITS)
    Size   : 1476 bytes


** Section #5 '.debug_frame' (SHT_PROGBITS)
    Size   : 1240 bytes


** Section #6 '.debug_info' (SHT_PROGBITS)
    Size   : 11492 bytes


** Section #7 '.debug_line' (SHT_PROGBITS)
    Size   : 2436 bytes


** Section #8 '.debug_loc' (SHT_PROGBITS)
    Size   : 456 bytes


** Section #9 '.debug_macinfo' (SHT_PROGBITS)
    Size   : 28092 bytes


** Section #10 '.debug_pubnames' (SHT_PROGBITS)
    Size   : 480 bytes


** Section #11 '.symtab' (SHT_SYMTAB)
    Size   : 4272 bytes (alignment 4)
    String table #12 '.strtab'
    Last local symbol no. 168


** Section #12 '.strtab' (SHT_STRTAB)
    Size   : 4224 bytes


** Section #13 '.note' (SHT_NOTE)
    Size   : 28 bytes (alignment 4)


** Section #14 '.comment' (SHT_PROGBITS)
    Size   : 4600 bytes


** Section #15 '.shstrtab' (SHT_STRTAB)
    Size   : 156 bytes


address     size       variable name                            type
0x2000000c  0x4        SystemCoreClock                          uint32_t

address     size       variable name                            type
0x20000008  0x4        ITM_RxBuffer                             volatile int32_t

address     size       variable name                            type
0x20000004  0x4        __stdin                                  FILE
0x20000004  0x4        __stdin.handle                           int

address     size       variable name                            type
0x20000000  0x4        __stdout                                 FILE
0x20000000  0x4        __stdout.handle                          int

