
========================================================================

** ELF Header Information

    File Name: Objects\template.axf

    Machine class: ELFCLASS32 (32-bit)
    Data encoding: ELFDATA2LSB (Little endian)
    Header version: EV_CURRENT (Current version)
    Operating System ABI: none
    ABI Version: 0
    File Type: ET_EXEC (Executable) (2)
    Machine: EM_ARM (ARM)

    Image Entry point: 0x000003c1
    Flags: EF_ARM_HASENTRY + EF_ARM_ABI_FLOAT_SOFT (0x05000202)

    ARM ELF revision: 5 (ABI version 2)

    Conforms to Soft float procedure-call standard

    Built with
    Component: ARM Compiler 5.06 update 6 (build 750) Tool: armasm [4d35ec]
    Component: ARM Compiler 5.06 update 6 (build 750) Tool: armlink [4d35ed]

    Header size: 52 bytes (0x34)
    Program header entry size: 32 bytes (0x20)
    Section header entry size: 40 bytes (0x28)

    Program header entries: 1
    Section header entries: 16

    Program header offset: 73872 (0x00012090)
    Section header offset: 73904 (0x000120b0)

    Section header string table index: 15

========================================================================

** Program header #0 (PT_LOAD) [PF_X + PF_W + PF_R + PF_ARM_ENTRY]
    Size : 9080 bytes (7960 bytes in file)
    Virtual address: 0x00000000 (Alignment 8)


========================================================================

** Section #1 'ER_IROM1' (SHT_PROGBITS) [SHF_ALLOC + SHF_EXECINSTR]
    Size   : 7936 bytes (alignment 4)
    Address: 0x00000000

    $d.realdata
    RESET
    __Vectors
        0x00000000:    20000478    x..     DCD    536872056
        0x00000004:    0000047d    }...    DCD    1149
        0x00000008:    00000487    ....    DCD    1159
        0x0000000c:    00000485    ....    DCD    1157
        0x00000010:    00000489    ....    DCD    1161
        0x00000014:    0000048b    ....    DCD    1163
        0x00000018:    0000048d    ....    DCD    1165
        0x0000001c:    00000000    ....    DCD    0
        0x00000020:    00000000    ....    DCD    0
        0x00000024:    00000000    ....    DCD    0
        0x00000028:    00000000    ....    DCD    0
        0x0000002c:    0000048f    ....    DCD    1167
        0x00000030:    00000491    ....    DCD    1169
        0x00000034:    00000000    ....    DCD    0
        0x00000038:    00000493    ....    DCD    1171
        0x0000003c:    00000495    ....    DCD    1173
        0x00000040:    00000497    ....    DCD    1175
        0x00000044:    00000499    ....    DCD    1177
        0x00000048:    0000049b    ....    DCD    1179
        0x0000004c:    0000049d    ....    DCD    1181
        0x00000050:    0000049f    ....    DCD    1183
        0x00000054:    000004a1    ....    DCD    1185
        0x00000058:    000004a3    ....    DCD    1187
        0x0000005c:    000004a5    ....    DCD    1189
        0x00000060:    000004a7    ....    DCD    1191
        0x00000064:    000004a9    ....    DCD    1193
        0x00000068:    00000000    ....    DCD    0
        0x0000006c:    00000000    ....    DCD    0
        0x00000070:    00000000    ....    DCD    0
        0x00000074:    00000000    ....    DCD    0
        0x00000078:    00000000    ....    DCD    0
        0x0000007c:    00000000    ....    DCD    0
        0x00000080:    00000000    ....    DCD    0
        0x00000084:    00000000    ....    DCD    0
        0x00000088:    00000000    ....    DCD    0
        0x0000008c:    00000000    ....    DCD    0
        0x00000090:    00000000    ....    DCD    0
        0x00000094:    00000000    ....    DCD    0
        0x00000098:    00000000    ....    DCD    0
        0x0000009c:    00000000    ....    DCD    0
        0x000000a0:    00000000    ....    DCD    0
        0x000000a4:    00000000    ....    DCD    0
        0x000000a8:    00000000    ....    DCD    0
        0x000000ac:    00000000    ....    DCD    0
        0x000000b0:    00000000    ....    DCD    0
        0x000000b4:    00000000    ....    DCD    0
        0x000000b8:    00000000    ....    DCD    0
        0x000000bc:    00000000    ....    DCD    0
        0x000000c0:    00000000    ....    DCD    0
        0x000000c4:    00000000    ....    DCD    0
        0x000000c8:    00000000    ....    DCD    0
        0x000000cc:    00000000    ....    DCD    0
        0x000000d0:    00000000    ....    DCD    0
        0x000000d4:    00000000    ....    DCD    0
        0x000000d8:    00000000    ....    DCD    0
        0x000000dc:    00000000    ....    DCD    0
        0x000000e0:    00000000    ....    DCD    0
        0x000000e4:    00000000    ....    DCD    0
        0x000000e8:    00000000    ....    DCD    0
        0x000000ec:    00000000    ....    DCD    0
        0x000000f0:    00000000    ....    DCD    0
        0x000000f4:    00000000    ....    DCD    0
        0x000000f8:    00000000    ....    DCD    0
        0x000000fc:    00000000    ....    DCD    0
        0x00000100:    00000000    ....    DCD    0
        0x00000104:    00000000    ....    DCD    0
        0x00000108:    00000000    ....    DCD    0
        0x0000010c:    00000000    ....    DCD    0
        0x00000110:    00000000    ....    DCD    0
        0x00000114:    00000000    ....    DCD    0
        0x00000118:    00000000    ....    DCD    0
        0x0000011c:    00000000    ....    DCD    0
        0x00000120:    00000000    ....    DCD    0
        0x00000124:    00000000    ....    DCD    0
        0x00000128:    00000000    ....    DCD    0
        0x0000012c:    00000000    ....    DCD    0
        0x00000130:    00000000    ....    DCD    0
        0x00000134:    00000000    ....    DCD    0
        0x00000138:    00000000    ....    DCD    0
        0x0000013c:    00000000    ....    DCD    0
        0x00000140:    00000000    ....    DCD    0
        0x00000144:    00000000    ....    DCD    0
        0x00000148:    00000000    ....    DCD    0
        0x0000014c:    00000000    ....    DCD    0
        0x00000150:    00000000    ....    DCD    0
        0x00000154:    00000000    ....    DCD    0
        0x00000158:    00000000    ....    DCD    0
        0x0000015c:    00000000    ....    DCD    0
        0x00000160:    00000000    ....    DCD    0
        0x00000164:    00000000    ....    DCD    0
        0x00000168:    00000000    ....    DCD    0
        0x0000016c:    00000000    ....    DCD    0
        0x00000170:    00000000    ....    DCD    0
        0x00000174:    00000000    ....    DCD    0
        0x00000178:    00000000    ....    DCD    0
        0x0000017c:    00000000    ....    DCD    0
        0x00000180:    00000000    ....    DCD    0
        0x00000184:    00000000    ....    DCD    0
        0x00000188:    00000000    ....    DCD    0
        0x0000018c:    00000000    ....    DCD    0
        0x00000190:    00000000    ....    DCD    0
        0x00000194:    00000000    ....    DCD    0
        0x00000198:    00000000    ....    DCD    0
        0x0000019c:    00000000    ....    DCD    0
        0x000001a0:    00000000    ....    DCD    0
        0x000001a4:    00000000    ....    DCD    0
        0x000001a8:    00000000    ....    DCD    0
        0x000001ac:    00000000    ....    DCD    0
        0x000001b0:    00000000    ....    DCD    0
        0x000001b4:    00000000    ....    DCD    0
        0x000001b8:    00000000    ....    DCD    0
        0x000001bc:    00000000    ....    DCD    0
        0x000001c0:    00000000    ....    DCD    0
        0x000001c4:    00000000    ....    DCD    0
        0x000001c8:    00000000    ....    DCD    0
        0x000001cc:    00000000    ....    DCD    0
        0x000001d0:    00000000    ....    DCD    0
        0x000001d4:    00000000    ....    DCD    0
        0x000001d8:    00000000    ....    DCD    0
        0x000001dc:    00000000    ....    DCD    0
        0x000001e0:    00000000    ....    DCD    0
        0x000001e4:    00000000    ....    DCD    0
        0x000001e8:    00000000    ....    DCD    0
        0x000001ec:    00000000    ....    DCD    0
        0x000001f0:    00000000    ....    DCD    0
        0x000001f4:    00000000    ....    DCD    0
        0x000001f8:    00000000    ....    DCD    0
        0x000001fc:    00000000    ....    DCD    0
        0x00000200:    00000000    ....    DCD    0
        0x00000204:    00000000    ....    DCD    0
        0x00000208:    00000000    ....    DCD    0
        0x0000020c:    00000000    ....    DCD    0
        0x00000210:    00000000    ....    DCD    0
        0x00000214:    00000000    ....    DCD    0
        0x00000218:    00000000    ....    DCD    0
        0x0000021c:    00000000    ....    DCD    0
        0x00000220:    00000000    ....    DCD    0
        0x00000224:    00000000    ....    DCD    0
        0x00000228:    00000000    ....    DCD    0
        0x0000022c:    00000000    ....    DCD    0
        0x00000230:    00000000    ....    DCD    0
        0x00000234:    00000000    ....    DCD    0
        0x00000238:    00000000    ....    DCD    0
        0x0000023c:    00000000    ....    DCD    0
        0x00000240:    00000000    ....    DCD    0
        0x00000244:    00000000    ....    DCD    0
        0x00000248:    00000000    ....    DCD    0
        0x0000024c:    00000000    ....    DCD    0
        0x00000250:    00000000    ....    DCD    0
        0x00000254:    00000000    ....    DCD    0
        0x00000258:    00000000    ....    DCD    0
        0x0000025c:    00000000    ....    DCD    0
        0x00000260:    00000000    ....    DCD    0
        0x00000264:    00000000    ....    DCD    0
        0x00000268:    00000000    ....    DCD    0
        0x0000026c:    00000000    ....    DCD    0
        0x00000270:    00000000    ....    DCD    0
        0x00000274:    00000000    ....    DCD    0
        0x00000278:    00000000    ....    DCD    0
        0x0000027c:    00000000    ....    DCD    0
        0x00000280:    00000000    ....    DCD    0
        0x00000284:    00000000    ....    DCD    0
        0x00000288:    00000000    ....    DCD    0
        0x0000028c:    00000000    ....    DCD    0
        0x00000290:    00000000    ....    DCD    0
        0x00000294:    00000000    ....    DCD    0
        0x00000298:    00000000    ....    DCD    0
        0x0000029c:    00000000    ....    DCD    0
        0x000002a0:    00000000    ....    DCD    0
        0x000002a4:    00000000    ....    DCD    0
        0x000002a8:    00000000    ....    DCD    0
        0x000002ac:    00000000    ....    DCD    0
        0x000002b0:    00000000    ....    DCD    0
        0x000002b4:    00000000    ....    DCD    0
        0x000002b8:    00000000    ....    DCD    0
        0x000002bc:    00000000    ....    DCD    0
        0x000002c0:    00000000    ....    DCD    0
        0x000002c4:    00000000    ....    DCD    0
        0x000002c8:    00000000    ....    DCD    0
        0x000002cc:    00000000    ....    DCD    0
        0x000002d0:    00000000    ....    DCD    0
        0x000002d4:    00000000    ....    DCD    0
        0x000002d8:    00000000    ....    DCD    0
        0x000002dc:    00000000    ....    DCD    0
        0x000002e0:    00000000    ....    DCD    0
        0x000002e4:    00000000    ....    DCD    0
        0x000002e8:    00000000    ....    DCD    0
        0x000002ec:    00000000    ....    DCD    0
        0x000002f0:    00000000    ....    DCD    0
        0x000002f4:    00000000    ....    DCD    0
        0x000002f8:    00000000    ....    DCD    0
        0x000002fc:    00000000    ....    DCD    0
        0x00000300:    00000000    ....    DCD    0
        0x00000304:    00000000    ....    DCD    0
        0x00000308:    00000000    ....    DCD    0
        0x0000030c:    00000000    ....    DCD    0
        0x00000310:    00000000    ....    DCD    0
        0x00000314:    00000000    ....    DCD    0
        0x00000318:    00000000    ....    DCD    0
        0x0000031c:    00000000    ....    DCD    0
        0x00000320:    00000000    ....    DCD    0
        0x00000324:    00000000    ....    DCD    0
        0x00000328:    00000000    ....    DCD    0
        0x0000032c:    00000000    ....    DCD    0
        0x00000330:    00000000    ....    DCD    0
        0x00000334:    00000000    ....    DCD    0
        0x00000338:    00000000    ....    DCD    0
        0x0000033c:    00000000    ....    DCD    0
        0x00000340:    00000000    ....    DCD    0
        0x00000344:    00000000    ....    DCD    0
        0x00000348:    00000000    ....    DCD    0
        0x0000034c:    00000000    ....    DCD    0
        0x00000350:    00000000    ....    DCD    0
        0x00000354:    00000000    ....    DCD    0
        0x00000358:    00000000    ....    DCD    0
        0x0000035c:    00000000    ....    DCD    0
        0x00000360:    00000000    ....    DCD    0
        0x00000364:    00000000    ....    DCD    0
        0x00000368:    00000000    ....    DCD    0
        0x0000036c:    00000000    ....    DCD    0
        0x00000370:    00000000    ....    DCD    0
        0x00000374:    00000000    ....    DCD    0
        0x00000378:    00000000    ....    DCD    0
        0x0000037c:    00000000    ....    DCD    0
        0x00000380:    00000000    ....    DCD    0
        0x00000384:    00000000    ....    DCD    0
        0x00000388:    00000000    ....    DCD    0
        0x0000038c:    00000000    ....    DCD    0
        0x00000390:    00000000    ....    DCD    0
        0x00000394:    00000000    ....    DCD    0
        0x00000398:    00000000    ....    DCD    0
        0x0000039c:    00000000    ....    DCD    0
        0x000003a0:    00000000    ....    DCD    0
        0x000003a4:    00000000    ....    DCD    0
        0x000003a8:    00000000    ....    DCD    0
        0x000003ac:    00000000    ....    DCD    0
        0x000003b0:    00000000    ....    DCD    0
        0x000003b4:    00000000    ....    DCD    0
        0x000003b8:    00000000    ....    DCD    0
        0x000003bc:    00000000    ....    DCD    0
    $t
    !!!main
    __Vectors_End
    __main
        0x000003c0:    f000f802    ....    BL       __scatterload ; 0x3c8
        0x000003c4:    f000f84a    ..J.    BL       __rt_entry ; 0x45c
    !!!scatter
    __scatterload
    __scatterload_rt2
    __scatterload_rt2_thumb_only
        0x000003c8:    a00a        ..      ADR      r0,{pc}+0x2c ; 0x3f4
        0x000003ca:    e8900c00    ....    LDM      r0,{r10,r11}
        0x000003ce:    4482        .D      ADD      r10,r10,r0
        0x000003d0:    4483        .D      ADD      r11,r11,r0
        0x000003d2:    f1aa0701    ....    SUB      r7,r10,#1
    __scatterload_null
        0x000003d6:    45da        .E      CMP      r10,r11
        0x000003d8:    d101        ..      BNE      0x3de ; __scatterload_null + 8
        0x000003da:    f000f83f    ..?.    BL       __rt_entry ; 0x45c
        0x000003de:    f2af0e09    ....    ADR      lr,{pc}-7 ; 0x3d7
        0x000003e2:    e8ba000f    ....    LDM      r10!,{r0-r3}
        0x000003e6:    f0130f01    ....    TST      r3,#1
        0x000003ea:    bf18        ..      IT       NE
        0x000003ec:    1afb        ..      SUBNE    r3,r7,r3
        0x000003ee:    f0430301    C...    ORR      r3,r3,#1
        0x000003f2:    4718        .G      BX       r3
    $d
        0x000003f4:    00001ad0    ....    DCD    6864
        0x000003f8:    00001af0    ....    DCD    6896
    $t
    !!handler_copy
    __scatterload_copy
        0x000003fc:    3a10        .:      SUBS     r2,r2,#0x10
        0x000003fe:    bf24        $.      ITT      CS
        0x00000400:    c878        x.      LDMCS    r0!,{r3-r6}
        0x00000402:    c178        x.      STMCS    r1!,{r3-r6}
        0x00000404:    d8fa        ..      BHI      __scatterload_copy ; 0x3fc
        0x00000406:    0752        R.      LSLS     r2,r2,#29
        0x00000408:    bf24        $.      ITT      CS
        0x0000040a:    c830        0.      LDMCS    r0!,{r4,r5}
        0x0000040c:    c130        0.      STMCS    r1!,{r4,r5}
        0x0000040e:    bf44        D.      ITT      MI
        0x00000410:    6804        .h      LDRMI    r4,[r0,#0]
        0x00000412:    600c        .`      STRMI    r4,[r1,#0]
        0x00000414:    4770        pG      BX       lr
        0x00000416:    0000        ..      MOVS     r0,r0
    !!handler_zi
    __scatterload_zeroinit
        0x00000418:    2300        .#      MOVS     r3,#0
        0x0000041a:    2400        .$      MOVS     r4,#0
        0x0000041c:    2500        .%      MOVS     r5,#0
        0x0000041e:    2600        .&      MOVS     r6,#0
        0x00000420:    3a10        .:      SUBS     r2,r2,#0x10
        0x00000422:    bf28        (.      IT       CS
        0x00000424:    c178        x.      STMCS    r1!,{r3-r6}
        0x00000426:    d8fb        ..      BHI      0x420 ; __scatterload_zeroinit + 8
        0x00000428:    0752        R.      LSLS     r2,r2,#29
        0x0000042a:    bf28        (.      IT       CS
        0x0000042c:    c130        0.      STMCS    r1!,{r4,r5}
        0x0000042e:    bf48        H.      IT       MI
        0x00000430:    600b        .`      STRMI    r3,[r1,#0]
        0x00000432:    4770        pG      BX       lr
    .ARM.Collect$$_printf_percent$$00000003
    .ARM.Collect$$_printf_percent$$00000000
    _printf_f
    _printf_percent
        0x00000434:    2966        f)      CMP      r1,#0x66
        0x00000436:    f00184f8    ....    BEQ.W    _printf_fp_dec ; 0x1e2a
    .ARM.Collect$$_printf_percent$$00000009
    _printf_d
        0x0000043a:    2964        d)      CMP      r1,#0x64
        0x0000043c:    f0008046    ..F.    BEQ.W    _printf_int_dec ; 0x4cc
    .ARM.Collect$$_printf_percent$$00000017
    _printf_percent_end
        0x00000440:    2000        .       MOVS     r0,#0
        0x00000442:    4770        pG      BX       lr
    .ARM.Collect$$libinit$$00000000
    __rt_lib_init
        0x00000444:    b51f        ..      PUSH     {r0-r4,lr}
    .ARM.Collect$$libinit$$00000002
    .ARM.Collect$$libinit$$00000004
    .ARM.Collect$$libinit$$0000000A
    .ARM.Collect$$libinit$$0000000C
    .ARM.Collect$$libinit$$0000000E
    .ARM.Collect$$libinit$$0000000F
    __rt_lib_init_fp_1
    __rt_lib_init_heap_1
    __rt_lib_init_lc_common
    __rt_lib_init_preinit_1
    __rt_lib_init_rand_1
    __rt_lib_init_user_alloc_1
        0x00000446:    f000fb81    ....    BL       __rt_locale ; 0xb4c
        0x0000044a:    0004        ..      MOVS     r4,r0
    .ARM.Collect$$libinit$$00000011
    .ARM.Collect$$libinit$$00000013
    .ARM.Collect$$libinit$$00000015
    .ARM.Collect$$libinit$$00000016
    __rt_lib_init_lc_collate_1
    __rt_lib_init_lc_ctype_1
    __rt_lib_init_lc_monetary_1
    __rt_lib_init_lc_numeric_2
        0x0000044c:    2000        .       MOVS     r0,#0
        0x0000044e:    2100        .!      MOVS     r1,#0
        0x00000450:    f001fa7a    ..z.    BL       _get_lc_numeric ; 0x1948
        0x00000454:    60e0        .`      STR      r0,[r4,#0xc]
    .ARM.Collect$$libinit$$00000017
    .ARM.Collect$$libinit$$00000019
    .ARM.Collect$$libinit$$0000001B
    .ARM.Collect$$libinit$$0000001D
    .ARM.Collect$$libinit$$0000001F
    .ARM.Collect$$libinit$$00000021
    .ARM.Collect$$libinit$$00000023
    .ARM.Collect$$libinit$$00000025
    .ARM.Collect$$libinit$$0000002C
    .ARM.Collect$$libinit$$0000002E
    .ARM.Collect$$libinit$$00000030
    .ARM.Collect$$libinit$$00000032
    .ARM.Collect$$libinit$$00000033
    __rt_lib_init_alloca_1
    __rt_lib_init_argv_1
    __rt_lib_init_atexit_1
    __rt_lib_init_clock_1
    __rt_lib_init_cpp_1
    __rt_lib_init_exceptions_1
    __rt_lib_init_fp_trap_1
    __rt_lib_init_getenv_1
    __rt_lib_init_lc_numeric_1
    __rt_lib_init_lc_time_1
    __rt_lib_init_return
    __rt_lib_init_signal_1
    __rt_lib_init_stdio_1
        0x00000456:    bd1f        ..      POP      {r0-r4,pc}
    .ARM.Collect$$libshutdown$$00000000
    __rt_lib_shutdown
        0x00000458:    b510        ..      PUSH     {r4,lr}
    .ARM.Collect$$libshutdown$$00000002
    .ARM.Collect$$libshutdown$$00000004
    .ARM.Collect$$libshutdown$$00000007
    .ARM.Collect$$libshutdown$$0000000A
    .ARM.Collect$$libshutdown$$0000000C
    .ARM.Collect$$libshutdown$$0000000F
    .ARM.Collect$$libshutdown$$00000010
    __rt_lib_shutdown_cpp_1
    __rt_lib_shutdown_fp_trap_1
    __rt_lib_shutdown_heap_1
    __rt_lib_shutdown_return
    __rt_lib_shutdown_signal_1
    __rt_lib_shutdown_stdio_1
    __rt_lib_shutdown_user_alloc_1
        0x0000045a:    bd10        ..      POP      {r4,pc}
    .ARM.Collect$$rtentry$$00000000
    .ARM.Collect$$rtentry$$00000002
    .ARM.Collect$$rtentry$$00000005
    __rt_entry
    __rt_entry_presh_1
    __rt_entry_sh
        0x0000045c:    f8dfd00c    ....    LDR      sp,__lit__00000000 ; [0x46c] = 0x20000478
    .ARM.Collect$$rtentry$$00000009
    .ARM.Collect$$rtentry$$0000000A
    __rt_entry_li
    __rt_entry_postsh_1
        0x00000460:    f7fffff0    ....    BL       __rt_lib_init ; 0x444
    .ARM.Collect$$rtentry$$0000000C
    .ARM.Collect$$rtentry$$0000000D
    __rt_entry_main
    __rt_entry_postli_1
        0x00000464:    f001fa1e    ....    BL       main ; 0x18a4
        0x00000468:    f000fc84    ....    BL       exit ; 0xd74
    $d
    .ARM.Collect$$rtentry$$00002716
    __lit__00000000
        0x0000046c:    20000478    x..     DCD    536872056
    $t
    .ARM.Collect$$rtexit$$00000000
    __rt_exit
        0x00000470:    b403        ..      PUSH     {r0,r1}
    .ARM.Collect$$rtexit$$00000002
    .ARM.Collect$$rtexit$$00000003
    __rt_exit_ls
    __rt_exit_prels_1
        0x00000472:    f7fffff1    ....    BL       __rt_lib_shutdown ; 0x458
    .ARM.Collect$$rtexit$$00000004
    __rt_exit_exit
        0x00000476:    bc03        ..      POP      {r0,r1}
        0x00000478:    f001f9f1    ....    BL       _sys_exit ; 0x185e
    .text
    Reset_Handler
        0x0000047c:    480b        .H      LDR      r0,[pc,#44] ; [0x4ac] = 0x1809
        0x0000047e:    4780        .G      BLX      r0
        0x00000480:    480b        .H      LDR      r0,[pc,#44] ; [0x4b0] = 0x3c1
        0x00000482:    4700        .G      BX       r0
    HardFault_Handler
        0x00000484:    e7fe        ..      B        HardFault_Handler ; 0x484
    NMI_Handler
        0x00000486:    e7fe        ..      B        NMI_Handler ; 0x486
    MemManage_Handler
        0x00000488:    e7fe        ..      B        MemManage_Handler ; 0x488
    BusFault_Handler
        0x0000048a:    e7fe        ..      B        BusFault_Handler ; 0x48a
    UsageFault_Handler
        0x0000048c:    e7fe        ..      B        UsageFault_Handler ; 0x48c
    SVC_Handler
        0x0000048e:    e7fe        ..      B        SVC_Handler ; 0x48e
    DebugMon_Handler
        0x00000490:    e7fe        ..      B        DebugMon_Handler ; 0x490
    PendSV_Handler
        0x00000492:    e7fe        ..      B        PendSV_Handler ; 0x492
    SysTick_Handler
        0x00000494:    e7fe        ..      B        SysTick_Handler ; 0x494
    Interrupt0_Handler
        0x00000496:    e7fe        ..      B        Interrupt0_Handler ; 0x496
    Interrupt1_Handler
        0x00000498:    e7fe        ..      B        Interrupt1_Handler ; 0x498
    Interrupt2_Handler
        0x0000049a:    e7fe        ..      B        Interrupt2_Handler ; 0x49a
    Interrupt3_Handler
        0x0000049c:    e7fe        ..      B        Interrupt3_Handler ; 0x49c
    Interrupt4_Handler
        0x0000049e:    e7fe        ..      B        Interrupt4_Handler ; 0x49e
    Interrupt5_Handler
        0x000004a0:    e7fe        ..      B        Interrupt5_Handler ; 0x4a0
    Interrupt6_Handler
        0x000004a2:    e7fe        ..      B        Interrupt6_Handler ; 0x4a2
    Interrupt7_Handler
        0x000004a4:    e7fe        ..      B        Interrupt7_Handler ; 0x4a4
    Interrupt8_Handler
        0x000004a6:    e7fe        ..      B        Interrupt8_Handler ; 0x4a6
    Interrupt9_Handler
        0x000004a8:    e7fe        ..      B        Interrupt9_Handler ; 0x4a8
    $d
        0x000004aa:    0000        ..      DCW    0
        0x000004ac:    00001809    ....    DCD    6153
        0x000004b0:    000003c1    ....    DCD    961
    $t
    .text
    __2printf
        0x000004b4:    b40f        ..      PUSH     {r0-r3}
        0x000004b6:    4904        .I      LDR      r1,[pc,#16] ; [0x4c8] = 0x20000000
        0x000004b8:    b510        ..      PUSH     {r4,lr}
        0x000004ba:    aa03        ..      ADD      r2,sp,#0xc
        0x000004bc:    9802        ..      LDR      r0,[sp,#8]
        0x000004be:    f000fb33    ..3.    BL       _printf_char_file ; 0xb28
        0x000004c2:    bc10        ..      POP      {r4}
        0x000004c4:    f85dfb14    ]...    LDR      pc,[sp],#0x14
    $d
        0x000004c8:    20000000    ...     DCD    536870912
    $t
    .text
    _printf_int_dec
        0x000004cc:    e92d41f0    -..A    PUSH     {r4-r8,lr}
        0x000004d0:    4606        .F      MOV      r6,r0
        0x000004d2:    2400        .$      MOVS     r4,#0
        0x000004d4:    6810        .h      LDR      r0,[r2,#0]
        0x000004d6:    2975        u)      CMP      r1,#0x75
        0x000004d8:    4631        1F      MOV      r1,r6
        0x000004da:    a516        ..      ADR      r5,{pc}+0x5a ; 0x534
        0x000004dc:    d010        ..      BEQ      0x500 ; _printf_int_dec + 52
        0x000004de:    f3af8000    ....    NOP.W    
        0x000004e2:    2800        .(      CMP      r0,#0
        0x000004e4:    da02        ..      BGE      0x4ec ; _printf_int_dec + 32
        0x000004e6:    4240        @B      RSBS     r0,r0,#0
        0x000004e8:    a513        ..      ADR      r5,{pc}+0x50 ; 0x538
        0x000004ea:    e007        ..      B        0x4fc ; _printf_int_dec + 48
        0x000004ec:    6831        1h      LDR      r1,[r6,#0]
        0x000004ee:    078a        ..      LSLS     r2,r1,#30
        0x000004f0:    d501        ..      BPL      0x4f6 ; _printf_int_dec + 42
        0x000004f2:    a512        ..      ADR      r5,{pc}+0x4a ; 0x53c
        0x000004f4:    e002        ..      B        0x4fc ; _printf_int_dec + 48
        0x000004f6:    0749        I.      LSLS     r1,r1,#29
        0x000004f8:    d504        ..      BPL      0x504 ; _printf_int_dec + 56
        0x000004fa:    a511        ..      ADR      r5,{pc}+0x46 ; 0x540
        0x000004fc:    2401        .$      MOVS     r4,#1
        0x000004fe:    e001        ..      B        0x504 ; _printf_int_dec + 56
        0x00000500:    f3af8000    ....    NOP.W    
        0x00000504:    2100        .!      MOVS     r1,#0
        0x00000506:    220a        ."      MOVS     r2,#0xa
        0x00000508:    f1060724    ..$.    ADD      r7,r6,#0x24
        0x0000050c:    e009        ..      B        0x522 ; _printf_int_dec + 86
        0x0000050e:    fbb0fcf2    ....    UDIV     r12,r0,r2
        0x00000512:    fbb0f3f2    ....    UDIV     r3,r0,r2
        0x00000516:    fb02001c    ....    MLS      r0,r2,r12,r0
        0x0000051a:    3030        00      ADDS     r0,r0,#0x30
        0x0000051c:    5478        xT      STRB     r0,[r7,r1]
        0x0000051e:    4618        .F      MOV      r0,r3
        0x00000520:    1c49        I.      ADDS     r1,r1,#1
        0x00000522:    2800        .(      CMP      r0,#0
        0x00000524:    d1f3        ..      BNE      0x50e ; _printf_int_dec + 66
        0x00000526:    4623        #F      MOV      r3,r4
        0x00000528:    462a        *F      MOV      r2,r5
        0x0000052a:    4630        0F      MOV      r0,r6
        0x0000052c:    e8bd41f0    ...A    POP      {r4-r8,lr}
        0x00000530:    f000b892    ....    B.W      _printf_int_common ; 0x658
    $d
        0x00000534:    00000000    ....    DCD    0
        0x00000538:    0000002d    -...    DCD    45
        0x0000053c:    0000002b    +...    DCD    43
        0x00000540:    00000020     ...    DCD    32
    $t
    .text
    __printf
        0x00000544:    e92d47f0    -..G    PUSH     {r4-r10,lr}
        0x00000548:    f04f0a00    O...    MOV      r10,#0
        0x0000054c:    4689        .F      MOV      r9,r1
        0x0000054e:    4604        .F      MOV      r4,r0
        0x00000550:    f8c0a020    .. .    STR      r10,[r0,#0x20]
        0x00000554:    4620         F      MOV      r0,r4
        0x00000556:    68e1        .h      LDR      r1,[r4,#0xc]
        0x00000558:    4788        .G      BLX      r1
        0x0000055a:    2800        .(      CMP      r0,#0
        0x0000055c:    d076        v.      BEQ      0x64c ; __printf + 264
        0x0000055e:    2825        %(      CMP      r0,#0x25
        0x00000560:    d006        ..      BEQ      0x570 ; __printf + 44
        0x00000562:    e9d42101    ...!    LDRD     r2,r1,[r4,#4]
        0x00000566:    4790        .G      BLX      r2
        0x00000568:    6a20         j      LDR      r0,[r4,#0x20]
        0x0000056a:    1c40        @.      ADDS     r0,r0,#1
        0x0000056c:    6220         b      STR      r0,[r4,#0x20]
        0x0000056e:    e7f1        ..      B        0x554 ; __printf + 16
        0x00000570:    68e1        .h      LDR      r1,[r4,#0xc]
        0x00000572:    4620         F      MOV      r0,r4
        0x00000574:    2500        .%      MOVS     r5,#0
        0x00000576:    4788        .G      BLX      r1
        0x00000578:    f8c4a01c    ....    STR      r10,[r4,#0x1c]
        0x0000057c:    4606        .F      MOV      r6,r0
        0x0000057e:    2700        .'      MOVS     r7,#0
        0x00000580:    f8c4a018    ....    STR      r10,[r4,#0x18]
        0x00000584:    2e2a        *.      CMP      r6,#0x2a
        0x00000586:    d009        ..      BEQ      0x59c ; __printf + 88
        0x00000588:    4630        0F      MOV      r0,r6
        0x0000058a:    f001f961    ..a.    BL       _is_digit ; 0x1850
        0x0000058e:    b338        8.      CBZ      r0,0x5e0 ; __printf + 156
        0x00000590:    eb040887    ....    ADD      r8,r4,r7,LSL #2
        0x00000594:    3e30        0>      SUBS     r6,r6,#0x30
        0x00000596:    f8c86018    ...`    STR      r6,[r8,#0x18]
        0x0000059a:    e019        ..      B        0x5d0 ; __printf + 140
        0x0000059c:    f8591b04    Y...    LDR      r1,[r9],#4
        0x000005a0:    4620         F      MOV      r0,r4
        0x000005a2:    eb040287    ....    ADD      r2,r4,r7,LSL #2
        0x000005a6:    6191        .a      STR      r1,[r2,#0x18]
        0x000005a8:    68e1        .h      LDR      r1,[r4,#0xc]
        0x000005aa:    4788        .G      BLX      r1
        0x000005ac:    2f01        ./      CMP      r7,#1
        0x000005ae:    4606        .F      MOV      r6,r0
        0x000005b0:    d118        ..      BNE      0x5e4 ; __printf + 160
        0x000005b2:    69e0        .i      LDR      r0,[r4,#0x1c]
        0x000005b4:    2800        .(      CMP      r0,#0
        0x000005b6:    da20         .      BGE      0x5fa ; __printf + 182
        0x000005b8:    f0250520    %. .    BIC      r5,r5,#0x20
        0x000005bc:    e01d        ..      B        0x5fa ; __printf + 182
        0x000005be:    f8d80018    ....    LDR      r0,[r8,#0x18]
        0x000005c2:    eb000080    ....    ADD      r0,r0,r0,LSL #2
        0x000005c6:    eb060040    ..@.    ADD      r0,r6,r0,LSL #1
        0x000005ca:    3830        08      SUBS     r0,r0,#0x30
        0x000005cc:    f8c80018    ....    STR      r0,[r8,#0x18]
        0x000005d0:    4620         F      MOV      r0,r4
        0x000005d2:    68e1        .h      LDR      r1,[r4,#0xc]
        0x000005d4:    4788        .G      BLX      r1
        0x000005d6:    4606        .F      MOV      r6,r0
        0x000005d8:    f001f93a    ..:.    BL       _is_digit ; 0x1850
        0x000005dc:    2800        .(      CMP      r0,#0
        0x000005de:    d1ee        ..      BNE      0x5be ; __printf + 122
        0x000005e0:    2f01        ./      CMP      r7,#1
        0x000005e2:    d00a        ..      BEQ      0x5fa ; __printf + 182
        0x000005e4:    2e2e        ..      CMP      r6,#0x2e
        0x000005e6:    d108        ..      BNE      0x5fa ; __printf + 182
        0x000005e8:    4620         F      MOV      r0,r4
        0x000005ea:    68e1        .h      LDR      r1,[r4,#0xc]
        0x000005ec:    4788        .G      BLX      r1
        0x000005ee:    1c7f        ..      ADDS     r7,r7,#1
        0x000005f0:    4606        .F      MOV      r6,r0
        0x000005f2:    2f02        ./      CMP      r7,#2
        0x000005f4:    f0450520    E. .    ORR      r5,r5,#0x20
        0x000005f8:    dbc4        ..      BLT      0x584 ; __printf + 64
        0x000005fa:    69a0        .i      LDR      r0,[r4,#0x18]
        0x000005fc:    2800        .(      CMP      r0,#0
        0x000005fe:    da03        ..      BGE      0x608 ; __printf + 196
        0x00000600:    4240        @B      RSBS     r0,r0,#0
        0x00000602:    f0450501    E...    ORR      r5,r5,#1
        0x00000606:    61a0        .a      STR      r0,[r4,#0x18]
        0x00000608:    07e8        ..      LSLS     r0,r5,#31
        0x0000060a:    d001        ..      BEQ      0x610 ; __printf + 204
        0x0000060c:    f0250510    %...    BIC      r5,r5,#0x10
        0x00000610:    b1b6        ..      CBZ      r6,0x640 ; __printf + 252
        0x00000612:    f1a60041    ..A.    SUB      r0,r6,#0x41
        0x00000616:    2819        .(      CMP      r0,#0x19
        0x00000618:    d802        ..      BHI      0x620 ; __printf + 220
        0x0000061a:    3620         6      ADDS     r6,r6,#0x20
        0x0000061c:    f4456500    E..e    ORR      r5,r5,#0x800
        0x00000620:    464a        JF      MOV      r2,r9
        0x00000622:    4631        1F      MOV      r1,r6
        0x00000624:    4620         F      MOV      r0,r4
        0x00000626:    6025        %`      STR      r5,[r4,#0]
        0x00000628:    464d        MF      MOV      r5,r9
        0x0000062a:    f7ffff03    ....    BL       _printf_f ; 0x434
        0x0000062e:    b158        X.      CBZ      r0,0x648 ; __printf + 260
        0x00000630:    2801        .(      CMP      r0,#1
        0x00000632:    d006        ..      BEQ      0x642 ; __printf + 254
        0x00000634:    1ded        ..      ADDS     r5,r5,#7
        0x00000636:    f0250007    %...    BIC      r0,r5,#7
        0x0000063a:    f1000908    ....    ADD      r9,r0,#8
        0x0000063e:    e789        ..      B        0x554 ; __printf + 16
        0x00000640:    e004        ..      B        0x64c ; __printf + 264
        0x00000642:    f1050904    ....    ADD      r9,r5,#4
        0x00000646:    e785        ..      B        0x554 ; __printf + 16
        0x00000648:    4630        0F      MOV      r0,r6
        0x0000064a:    e78a        ..      B        0x562 ; __printf + 30
        0x0000064c:    6a20         j      LDR      r0,[r4,#0x20]
        0x0000064e:    e8bd87f0    ....    POP      {r4-r10,pc}
    .text
    __use_two_region_memory
        0x00000652:    4770        pG      BX       lr
    __rt_heap_escrow$2region
        0x00000654:    4770        pG      BX       lr
    __rt_heap_expand$2region
        0x00000656:    4770        pG      BX       lr
    .text
    _printf_int_common
        0x00000658:    e92d47f0    -..G    PUSH     {r4-r10,lr}
        0x0000065c:    460d        .F      MOV      r5,r1
        0x0000065e:    4699        .F      MOV      r9,r3
        0x00000660:    4692        .F      MOV      r10,r2
        0x00000662:    4604        .F      MOV      r4,r0
        0x00000664:    f1000824    ..$.    ADD      r8,r0,#0x24
        0x00000668:    6801        .h      LDR      r1,[r0,#0]
        0x0000066a:    0688        ..      LSLS     r0,r1,#26
        0x0000066c:    d504        ..      BPL      0x678 ; _printf_int_common + 32
        0x0000066e:    69e0        .i      LDR      r0,[r4,#0x1c]
        0x00000670:    f0210110    !...    BIC      r1,r1,#0x10
        0x00000674:    6021        !`      STR      r1,[r4,#0]
        0x00000676:    e000        ..      B        0x67a ; _printf_int_common + 34
        0x00000678:    2001        .       MOVS     r0,#1
        0x0000067a:    42a8        .B      CMP      r0,r5
        0x0000067c:    dd01        ..      BLE      0x682 ; _printf_int_common + 42
        0x0000067e:    1b47        G.      SUBS     r7,r0,r5
        0x00000680:    e000        ..      B        0x684 ; _printf_int_common + 44
        0x00000682:    2700        .'      MOVS     r7,#0
        0x00000684:    69a1        .i      LDR      r1,[r4,#0x18]
        0x00000686:    197a        z.      ADDS     r2,r7,r5
        0x00000688:    eb020009    ....    ADD      r0,r2,r9
        0x0000068c:    1a08        ..      SUBS     r0,r1,r0
        0x0000068e:    61a0        .a      STR      r0,[r4,#0x18]
        0x00000690:    7820         x      LDRB     r0,[r4,#0]
        0x00000692:    06c0        ..      LSLS     r0,r0,#27
        0x00000694:    d402        ..      BMI      0x69c ; _printf_int_common + 68
        0x00000696:    4620         F      MOV      r0,r4
        0x00000698:    f3af8000    ....    NOP.W    
        0x0000069c:    2600        .&      MOVS     r6,#0
        0x0000069e:    e008        ..      B        0x6b2 ; _printf_int_common + 90
        0x000006a0:    e9d42101    ...!    LDRD     r2,r1,[r4,#4]
        0x000006a4:    f81a0006    ....    LDRB     r0,[r10,r6]
        0x000006a8:    4790        .G      BLX      r2
        0x000006aa:    6a20         j      LDR      r0,[r4,#0x20]
        0x000006ac:    1c40        @.      ADDS     r0,r0,#1
        0x000006ae:    1c76        v.      ADDS     r6,r6,#1
        0x000006b0:    6220         b      STR      r0,[r4,#0x20]
        0x000006b2:    454e        NE      CMP      r6,r9
        0x000006b4:    dbf4        ..      BLT      0x6a0 ; _printf_int_common + 72
        0x000006b6:    7820         x      LDRB     r0,[r4,#0]
        0x000006b8:    06c0        ..      LSLS     r0,r0,#27
        0x000006ba:    d50a        ..      BPL      0x6d2 ; _printf_int_common + 122
        0x000006bc:    4620         F      MOV      r0,r4
        0x000006be:    f3af8000    ....    NOP.W    
        0x000006c2:    e006        ..      B        0x6d2 ; _printf_int_common + 122
        0x000006c4:    e9d42101    ...!    LDRD     r2,r1,[r4,#4]
        0x000006c8:    2030        0       MOVS     r0,#0x30
        0x000006ca:    4790        .G      BLX      r2
        0x000006cc:    6a20         j      LDR      r0,[r4,#0x20]
        0x000006ce:    1c40        @.      ADDS     r0,r0,#1
        0x000006d0:    6220         b      STR      r0,[r4,#0x20]
        0x000006d2:    1e38        8.      SUBS     r0,r7,#0
        0x000006d4:    f1a70701    ....    SUB      r7,r7,#1
        0x000006d8:    dcf4        ..      BGT      0x6c4 ; _printf_int_common + 108
        0x000006da:    e007        ..      B        0x6ec ; _printf_int_common + 148
        0x000006dc:    e9d42101    ...!    LDRD     r2,r1,[r4,#4]
        0x000006e0:    f8180005    ....    LDRB     r0,[r8,r5]
        0x000006e4:    4790        .G      BLX      r2
        0x000006e6:    6a20         j      LDR      r0,[r4,#0x20]
        0x000006e8:    1c40        @.      ADDS     r0,r0,#1
        0x000006ea:    6220         b      STR      r0,[r4,#0x20]
        0x000006ec:    1e28        (.      SUBS     r0,r5,#0
        0x000006ee:    f1a50501    ....    SUB      r5,r5,#1
        0x000006f2:    dcf3        ..      BGT      0x6dc ; _printf_int_common + 132
        0x000006f4:    4620         F      MOV      r0,r4
        0x000006f6:    f3af8000    ....    NOP.W    
        0x000006fa:    7820         x      LDRB     r0,[r4,#0]
        0x000006fc:    0600        ..      LSLS     r0,r0,#24
        0x000006fe:    d502        ..      BPL      0x706 ; _printf_int_common + 174
        0x00000700:    2002        .       MOVS     r0,#2
        0x00000702:    e8bd87f0    ....    POP      {r4-r10,pc}
        0x00000706:    2001        .       MOVS     r0,#1
        0x00000708:    e7fb        ..      B        0x702 ; _printf_int_common + 170
    .text
    __lib_sel_fp_printf
        0x0000070a:    4770        pG      BX       lr
    _fp_digits
        0x0000070c:    e92d4fff    -..O    PUSH     {r0-r11,lr}
        0x00000710:    460c        .F      MOV      r4,r1
        0x00000712:    461e        .F      MOV      r6,r3
        0x00000714:    f04f37ff    O..7    MOV      r7,#0xffffffff
        0x00000718:    b08b        ..      SUB      sp,sp,#0x2c
        0x0000071a:    e9d20100    ....    LDRD     r0,r1,[r2,#0]
        0x0000071e:    f8dd8060    ..`.    LDR      r8,[sp,#0x60]
        0x00000722:    900a        ..      STR      r0,[sp,#0x28]
        0x00000724:    468a        .F      MOV      r10,r1
        0x00000726:    f3c1550a    ...U    UBFX     r5,r1,#20,#11
        0x0000072a:    b905        ..      CBNZ     r5,0x72e ; _fp_digits + 34
        0x0000072c:    463d        =F      MOV      r5,r7
        0x0000072e:    2100        .!      MOVS     r1,#0
        0x00000730:    4608        .F      MOV      r0,r1
        0x00000732:    f04f0000    O...    MOV      r0,#0
        0x00000736:    f1ba0f00    ....    CMP      r10,#0
        0x0000073a:    f4000040    ..@.    AND      r0,r0,#0xc00000
        0x0000073e:    da05        ..      BGE      0x74c ; _fp_digits + 64
        0x00000740:    eb000080    ....    ADD      r0,r0,r0,LSL #2
        0x00000744:    f44f0140    O.@.    MOV      r1,#0xc00000
        0x00000748:    ea010050    ..P.    AND      r0,r1,r0,LSR #1
        0x0000074c:    ea4f5990    O..Y    LSR      r9,r0,#22
        0x00000750:    f1b90f01    ....    CMP      r9,#1
        0x00000754:    dd00        ..      BLE      0x758 ; _fp_digits + 76
        0x00000756:    46b9        .F      MOV      r9,r7
        0x00000758:    980a        ..      LDR      r0,[sp,#0x28]
        0x0000075a:    ea50004a    P.J.    ORRS     r0,r0,r10,LSL #1
        0x0000075e:    d00e        ..      BEQ      0x77e ; _fp_digits + 114
        0x00000760:    f6445010    D..P    MOV      r0,#0x4d10
        0x00000764:    f2a535ff    ...5    SUB      r5,r5,#0x3ff
        0x00000768:    4345        EC      MULS     r5,r0,r5
        0x0000076a:    142f        /.      ASRS     r7,r5,#16
        0x0000076c:    f1b80f00    ....    CMP      r8,#0
        0x00000770:    d01e        ..      BEQ      0x7b0 ; _fp_digits + 164
        0x00000772:    4275        uB      RSBS     r5,r6,#0
        0x00000774:    1e29        ).      SUBS     r1,r5,#0
        0x00000776:    dd1e        ..      BLE      0x7b6 ; _fp_digits + 170
        0x00000778:    f1c90200    ....    RSB      r2,r9,#0
        0x0000077c:    e01c        ..      B        0x7b8 ; _fp_digits + 172
        0x0000077e:    f1b80f01    ....    CMP      r8,#1
        0x00000782:    f04f0000    O...    MOV      r0,#0
        0x00000786:    d001        ..      BEQ      0x78c ; _fp_digits + 128
        0x00000788:    2130        0!      MOVS     r1,#0x30
        0x0000078a:    e003        ..      B        0x794 ; _fp_digits + 136
        0x0000078c:    43f2        .C      MVNS     r2,r6
        0x0000078e:    e005        ..      B        0x79c ; _fp_digits + 144
        0x00000790:    5421        !T      STRB     r1,[r4,r0]
        0x00000792:    1c40        @.      ADDS     r0,r0,#1
        0x00000794:    42b0        .B      CMP      r0,r6
        0x00000796:    dbfb        ..      BLT      0x790 ; _fp_digits + 132
        0x00000798:    4630        0F      MOV      r0,r6
        0x0000079a:    2200        ."      MOVS     r2,#0
        0x0000079c:    2100        .!      MOVS     r1,#0
        0x0000079e:    5421        !T      STRB     r1,[r4,r0]
        0x000007a0:    990b        ..      LDR      r1,[sp,#0x2c]
        0x000007a2:    f8c18008    ....    STR      r8,[r1,#8]
        0x000007a6:    e9c12000    ...     STRD     r2,r0,[r1,#0]
        0x000007aa:    b00f        ..      ADD      sp,sp,#0x3c
        0x000007ac:    e8bd8ff0    ....    POP      {r4-r11,pc}
        0x000007b0:    1bbd        ..      SUBS     r5,r7,r6
        0x000007b2:    1c6d        m.      ADDS     r5,r5,#1
        0x000007b4:    e7de        ..      B        0x774 ; _fp_digits + 104
        0x000007b6:    464a        JF      MOV      r2,r9
        0x000007b8:    da00        ..      BGE      0x7bc ; _fp_digits + 176
        0x000007ba:    4269        iB      RSBS     r1,r5,#0
        0x000007bc:    a806        ..      ADD      r0,sp,#0x18
        0x000007be:    f000fa67    ..g.    BL       _btod_etento ; 0xc90
        0x000007c2:    ab06        ..      ADD      r3,sp,#0x18
        0x000007c4:    e8930007    ....    LDM      r3,{r0-r2}
        0x000007c8:    ab03        ..      ADD      r3,sp,#0xc
        0x000007ca:    e8830007    ....    STM      r3,{r0-r2}
        0x000007ce:    4650        PF      MOV      r0,r10
        0x000007d0:    990a        ..      LDR      r1,[sp,#0x28]
        0x000007d2:    f000fb19    ....    BL       _btod_d2e ; 0xe08
        0x000007d6:    e88d0007    ....    STM      sp,{r0-r2}
        0x000007da:    f5a05000    ...P    SUB      r0,r0,#0x2000
        0x000007de:    381f        .8      SUBS     r0,r0,#0x1f
        0x000007e0:    9000        ..      STR      r0,[sp,#0]
        0x000007e2:    9803        ..      LDR      r0,[sp,#0xc]
        0x000007e4:    2d00        .-      CMP      r5,#0
        0x000007e6:    dd0a        ..      BLE      0x7fe ; _fp_digits + 242
        0x000007e8:    f242011f    B...    MOV      r1,#0x201f
        0x000007ec:    464a        JF      MOV      r2,r9
        0x000007ee:    4408        .D      ADD      r0,r0,r1
        0x000007f0:    2300        .#      MOVS     r3,#0
        0x000007f2:    a903        ..      ADD      r1,sp,#0xc
        0x000007f4:    9003        ..      STR      r0,[sp,#0xc]
        0x000007f6:    4668        hF      MOV      r0,sp
        0x000007f8:    f000fd82    ....    BL       _btod_ediv ; 0x1300
        0x000007fc:    e009        ..      B        0x812 ; _fp_digits + 262
        0x000007fe:    f5a05000    ...P    SUB      r0,r0,#0x2000
        0x00000802:    464a        JF      MOV      r2,r9
        0x00000804:    381f        .8      SUBS     r0,r0,#0x1f
        0x00000806:    2300        .#      MOVS     r3,#0
        0x00000808:    a903        ..      ADD      r1,sp,#0xc
        0x0000080a:    9003        ..      STR      r0,[sp,#0xc]
        0x0000080c:    4668        hF      MOV      r0,sp
        0x0000080e:    f000fd8c    ....    BL       _btod_emul ; 0x132a
        0x00000812:    e88d0007    ....    STM      sp,{r0-r2}
        0x00000816:    0400        ..      LSLS     r0,r0,#16
        0x00000818:    0c00        ..      LSRS     r0,r0,#16
        0x0000081a:    d003        ..      BEQ      0x824 ; _fp_digits + 280
        0x0000081c:    f04f30ff    O..0    MOV      r0,#0xffffffff
        0x00000820:    0841        A.      LSRS     r1,r0,#1
        0x00000822:    e000        ..      B        0x826 ; _fp_digits + 282
        0x00000824:    4610        .F      MOV      r0,r2
        0x00000826:    f1b80f00    ....    CMP      r8,#0
        0x0000082a:    d003        ..      BEQ      0x834 ; _fp_digits + 296
        0x0000082c:    2200        ."      MOVS     r2,#0
        0x0000082e:    9200        ..      STR      r2,[sp,#0]
        0x00000830:    4615        .F      MOV      r5,r2
        0x00000832:    e01e        ..      B        0x872 ; _fp_digits + 358
        0x00000834:    1e75        u.      SUBS     r5,r6,#1
        0x00000836:    d405        ..      BMI      0x844 ; _fp_digits + 312
        0x00000838:    f000f98c    ....    BL       _ll_udiv10 ; 0xb54
        0x0000083c:    3230        02      ADDS     r2,r2,#0x30
        0x0000083e:    5562        bU      STRB     r2,[r4,r5]
        0x00000840:    1e6d        m.      SUBS     r5,r5,#1
        0x00000842:    d5f9        ..      BPL      0x838 ; _fp_digits + 300
        0x00000844:    46b3        .F      MOV      r11,r6
        0x00000846:    2201        ."      MOVS     r2,#1
        0x00000848:    4308        .C      ORRS     r0,r0,r1
        0x0000084a:    d002        ..      BEQ      0x852 ; _fp_digits + 326
        0x0000084c:    2200        ."      MOVS     r2,#0
        0x0000084e:    1c7f        ..      ADDS     r7,r7,#1
        0x00000850:    e004        ..      B        0x85c ; _fp_digits + 336
        0x00000852:    7820         x      LDRB     r0,[r4,#0]
        0x00000854:    2830        0(      CMP      r0,#0x30
        0x00000856:    d101        ..      BNE      0x85c ; _fp_digits + 336
        0x00000858:    2200        ."      MOVS     r2,#0
        0x0000085a:    1e7f        ..      SUBS     r7,r7,#1
        0x0000085c:    2a00        .*      CMP      r2,#0
        0x0000085e:    9709        ..      STR      r7,[sp,#0x24]
        0x00000860:    d084        ..      BEQ      0x76c ; _fp_digits + 96
        0x00000862:    e01d        ..      B        0x8a0 ; _fp_digits + 404
        0x00000864:    2d11        .-      CMP      r5,#0x11
        0x00000866:    da07        ..      BGE      0x878 ; _fp_digits + 364
        0x00000868:    f000f974    ..t.    BL       _ll_udiv10 ; 0xb54
        0x0000086c:    3230        02      ADDS     r2,r2,#0x30
        0x0000086e:    5562        bU      STRB     r2,[r4,r5]
        0x00000870:    1c6d        m.      ADDS     r5,r5,#1
        0x00000872:    ea500201    P...    ORRS     r2,r0,r1
        0x00000876:    d1f5        ..      BNE      0x864 ; _fp_digits + 344
        0x00000878:    4308        .C      ORRS     r0,r0,r1
        0x0000087a:    d002        ..      BEQ      0x882 ; _fp_digits + 374
        0x0000087c:    9800        ..      LDR      r0,[sp,#0]
        0x0000087e:    b1c8        ..      CBZ      r0,0x8b4 ; _fp_digits + 424
        0x00000880:    e00e        ..      B        0x8a0 ; _fp_digits + 404
        0x00000882:    2100        .!      MOVS     r1,#0
        0x00000884:    1e68        h.      SUBS     r0,r5,#1
        0x00000886:    e005        ..      B        0x894 ; _fp_digits + 392
        0x00000888:    5c23        #\      LDRB     r3,[r4,r0]
        0x0000088a:    5c62        b\      LDRB     r2,[r4,r1]
        0x0000088c:    5463        cT      STRB     r3,[r4,r1]
        0x0000088e:    5422        "T      STRB     r2,[r4,r0]
        0x00000890:    1e40        @.      SUBS     r0,r0,#1
        0x00000892:    1c49        I.      ADDS     r1,r1,#1
        0x00000894:    4281        .B      CMP      r1,r0
        0x00000896:    dbf7        ..      BLT      0x888 ; _fp_digits + 380
        0x00000898:    46ab        .F      MOV      r11,r5
        0x0000089a:    1ba8        ..      SUBS     r0,r5,r6
        0x0000089c:    1e40        @.      SUBS     r0,r0,#1
        0x0000089e:    9009        ..      STR      r0,[sp,#0x24]
        0x000008a0:    2000        .       MOVS     r0,#0
        0x000008a2:    f804000b    ....    STRB     r0,[r4,r11]
        0x000008a6:    980b        ..      LDR      r0,[sp,#0x2c]
        0x000008a8:    9a09        ..      LDR      r2,[sp,#0x24]
        0x000008aa:    f8c08008    ....    STR      r8,[r0,#8]
        0x000008ae:    e9c02b00    ...+    STRD     r2,r11,[r0,#0]
        0x000008b2:    e77a        z.      B        0x7aa ; _fp_digits + 158
        0x000008b4:    2611        .&      MOVS     r6,#0x11
        0x000008b6:    f04f0800    O...    MOV      r8,#0
        0x000008ba:    e757        W.      B        0x76c ; _fp_digits + 96
    _printf_fp_dec_real
        0x000008bc:    e92d4ff0    -..O    PUSH     {r4-r11,lr}
        0x000008c0:    4688        .F      MOV      r8,r1
        0x000008c2:    4604        .F      MOV      r4,r0
        0x000008c4:    1dd2        ..      ADDS     r2,r2,#7
        0x000008c6:    f0220107    "...    BIC      r1,r2,#7
        0x000008ca:    b091        ..      SUB      sp,sp,#0x44
        0x000008cc:    e9d10100    ....    LDRD     r0,r1,[r1,#0]
        0x000008d0:    e9cd010a    ....    STRD     r0,r1,[sp,#0x28]
        0x000008d4:    f000ffa8    ....    BL       __ARM_fpclassify ; 0x1828
        0x000008d8:    4602        .F      MOV      r2,r0
        0x000008da:    980b        ..      LDR      r0,[sp,#0x2c]
        0x000008dc:    0fc0        ..      LSRS     r0,r0,#31
        0x000008de:    d001        ..      BEQ      0x8e4 ; _printf_fp_dec_real + 40
        0x000008e0:    202d        -       MOVS     r0,#0x2d
        0x000008e2:    e007        ..      B        0x8f4 ; _printf_fp_dec_real + 56
        0x000008e4:    6820         h      LDR      r0,[r4,#0]
        0x000008e6:    0781        ..      LSLS     r1,r0,#30
        0x000008e8:    d501        ..      BPL      0x8ee ; _printf_fp_dec_real + 50
        0x000008ea:    202b        +       MOVS     r0,#0x2b
        0x000008ec:    e002        ..      B        0x8f4 ; _printf_fp_dec_real + 56
        0x000008ee:    2120         !      MOVS     r1,#0x20
        0x000008f0:    ea0100c0    ....    AND      r0,r1,r0,LSL #3
        0x000008f4:    2a03        .*      CMP      r2,#3
        0x000008f6:    9009        ..      STR      r0,[sp,#0x24]
        0x000008f8:    d001        ..      BEQ      0x8fe ; _printf_fp_dec_real + 66
        0x000008fa:    2a07        .*      CMP      r2,#7
        0x000008fc:    db05        ..      BLT      0x90a ; _printf_fp_dec_real + 78
        0x000008fe:    4603        .F      MOV      r3,r0
        0x00000900:    4641        AF      MOV      r1,r8
        0x00000902:    4620         F      MOV      r0,r4
        0x00000904:    f000f984    ....    BL       _printf_fp_infnan ; 0xc10
        0x00000908:    e10b        ..      B        0xb22 ; _printf_fp_dec_real + 614
        0x0000090a:    7820         x      LDRB     r0,[r4,#0]
        0x0000090c:    0680        ..      LSLS     r0,r0,#26
        0x0000090e:    d501        ..      BPL      0x914 ; _printf_fp_dec_real + 88
        0x00000910:    69e0        .i      LDR      r0,[r4,#0x1c]
        0x00000912:    e000        ..      B        0x916 ; _printf_fp_dec_real + 90
        0x00000914:    2006        .       MOVS     r0,#6
        0x00000916:    f1b80f65    ..e.    CMP      r8,#0x65
        0x0000091a:    4681        .F      MOV      r9,r0
        0x0000091c:    d006        ..      BEQ      0x92c ; _printf_fp_dec_real + 112
        0x0000091e:    f1b80f66    ..f.    CMP      r8,#0x66
        0x00000922:    d018        ..      BEQ      0x956 ; _printf_fp_dec_real + 154
        0x00000924:    f1b80f67    ..g.    CMP      r8,#0x67
        0x00000928:    d170        p.      BNE      0xa0c ; _printf_fp_dec_real + 336
        0x0000092a:    e031        1.      B        0x990 ; _printf_fp_dec_real + 212
        0x0000092c:    2000        .       MOVS     r0,#0
        0x0000092e:    f1b90f11    ....    CMP      r9,#0x11
        0x00000932:    9000        ..      STR      r0,[sp,#0]
        0x00000934:    db01        ..      BLT      0x93a ; _printf_fp_dec_real + 126
        0x00000936:    2311        .#      MOVS     r3,#0x11
        0x00000938:    e001        ..      B        0x93e ; _printf_fp_dec_real + 130
        0x0000093a:    f1090301    ....    ADD      r3,r9,#1
        0x0000093e:    aa0a        ..      ADD      r2,sp,#0x28
        0x00000940:    a901        ..      ADD      r1,sp,#4
        0x00000942:    a80c        ..      ADD      r0,sp,#0x30
        0x00000944:    f7fffee2    ....    BL       _fp_digits ; 0x70c
        0x00000948:    e9dd700c    ...p    LDRD     r7,r0,[sp,#0x30]
        0x0000094c:    2600        .&      MOVS     r6,#0
        0x0000094e:    f1090501    ....    ADD      r5,r9,#1
        0x00000952:    4683        .F      MOV      r11,r0
        0x00000954:    e047        G.      B        0x9e6 ; _printf_fp_dec_real + 298
        0x00000956:    2001        .       MOVS     r0,#1
        0x00000958:    464b        KF      MOV      r3,r9
        0x0000095a:    9000        ..      STR      r0,[sp,#0]
        0x0000095c:    f04f4700    O..G    MOV      r7,#0x80000000
        0x00000960:    aa0a        ..      ADD      r2,sp,#0x28
        0x00000962:    a901        ..      ADD      r1,sp,#4
        0x00000964:    a80c        ..      ADD      r0,sp,#0x30
        0x00000966:    f7fffed1    ....    BL       _fp_digits ; 0x70c
        0x0000096a:    e9ddb00d    ....    LDRD     r11,r0,[sp,#0x34]
        0x0000096e:    990c        ..      LDR      r1,[sp,#0x30]
        0x00000970:    465d        ]F      MOV      r5,r11
        0x00000972:    2600        .&      MOVS     r6,#0
        0x00000974:    b910        ..      CBNZ     r0,0x97c ; _printf_fp_dec_real + 192
        0x00000976:    f1090001    ....    ADD      r0,r9,#1
        0x0000097a:    180d        ..      ADDS     r5,r1,r0
        0x0000097c:    ebb90005    ....    SUBS     r0,r9,r5
        0x00000980:    d403        ..      BMI      0x98a ; _printf_fp_dec_real + 206
        0x00000982:    f1c036ff    ...6    RSB      r6,r0,#0xffffffff
        0x00000986:    f1090501    ....    ADD      r5,r9,#1
        0x0000098a:    eba50009    ....    SUB      r0,r5,r9
        0x0000098e:    e02b        +.      B        0x9e8 ; _printf_fp_dec_real + 300
        0x00000990:    f1b90f01    ....    CMP      r9,#1
        0x00000994:    da01        ..      BGE      0x99a ; _printf_fp_dec_real + 222
        0x00000996:    f04f0901    O...    MOV      r9,#1
        0x0000099a:    2000        .       MOVS     r0,#0
        0x0000099c:    f1b90f11    ....    CMP      r9,#0x11
        0x000009a0:    9000        ..      STR      r0,[sp,#0]
        0x000009a2:    4648        HF      MOV      r0,r9
        0x000009a4:    dd01        ..      BLE      0x9aa ; _printf_fp_dec_real + 238
        0x000009a6:    2311        .#      MOVS     r3,#0x11
        0x000009a8:    e000        ..      B        0x9ac ; _printf_fp_dec_real + 240
        0x000009aa:    4603        .F      MOV      r3,r0
        0x000009ac:    aa0a        ..      ADD      r2,sp,#0x28
        0x000009ae:    a901        ..      ADD      r1,sp,#4
        0x000009b0:    a80c        ..      ADD      r0,sp,#0x30
        0x000009b2:    f7fffeab    ....    BL       _fp_digits ; 0x70c
        0x000009b6:    e9dd700c    ...p    LDRD     r7,r0,[sp,#0x30]
        0x000009ba:    464d        MF      MOV      r5,r9
        0x000009bc:    2600        .&      MOVS     r6,#0
        0x000009be:    4683        .F      MOV      r11,r0
        0x000009c0:    7820         x      LDRB     r0,[r4,#0]
        0x000009c2:    0700        ..      LSLS     r0,r0,#28
        0x000009c4:    d40a        ..      BMI      0x9dc ; _printf_fp_dec_real + 288
        0x000009c6:    45ab        .E      CMP      r11,r5
        0x000009c8:    da00        ..      BGE      0x9cc ; _printf_fp_dec_real + 272
        0x000009ca:    465d        ]F      MOV      r5,r11
        0x000009cc:    a801        ..      ADD      r0,sp,#4
        0x000009ce:    2d01        .-      CMP      r5,#1
        0x000009d0:    dd04        ..      BLE      0x9dc ; _printf_fp_dec_real + 288
        0x000009d2:    1941        A.      ADDS     r1,r0,r5
        0x000009d4:    f8111c01    ....    LDRB     r1,[r1,#-1]
        0x000009d8:    2930        0)      CMP      r1,#0x30
        0x000009da:    d007        ..      BEQ      0x9ec ; _printf_fp_dec_real + 304
        0x000009dc:    454f        OE      CMP      r7,r9
        0x000009de:    da02        ..      BGE      0x9e6 ; _printf_fp_dec_real + 298
        0x000009e0:    f1170f04    ....    CMN      r7,#4
        0x000009e4:    da04        ..      BGE      0x9f0 ; _printf_fp_dec_real + 308
        0x000009e6:    2001        .       MOVS     r0,#1
        0x000009e8:    4682        .F      MOV      r10,r0
        0x000009ea:    e00f        ..      B        0xa0c ; _printf_fp_dec_real + 336
        0x000009ec:    1e6d        m.      SUBS     r5,r5,#1
        0x000009ee:    e7ee        ..      B        0x9ce ; _printf_fp_dec_real + 274
        0x000009f0:    2f00        ./      CMP      r7,#0
        0x000009f2:    dc02        ..      BGT      0x9fa ; _printf_fp_dec_real + 318
        0x000009f4:    1bed        ..      SUBS     r5,r5,r7
        0x000009f6:    443e        >D      ADD      r6,r6,r7
        0x000009f8:    e003        ..      B        0xa02 ; _printf_fp_dec_real + 326
        0x000009fa:    1c78        x.      ADDS     r0,r7,#1
        0x000009fc:    42a8        .B      CMP      r0,r5
        0x000009fe:    dd00        ..      BLE      0xa02 ; _printf_fp_dec_real + 326
        0x00000a00:    1c7d        }.      ADDS     r5,r7,#1
        0x00000a02:    1bb8        ..      SUBS     r0,r7,r6
        0x00000a04:    f1000a01    ....    ADD      r10,r0,#1
        0x00000a08:    f04f4700    O..G    MOV      r7,#0x80000000
        0x00000a0c:    7820         x      LDRB     r0,[r4,#0]
        0x00000a0e:    0700        ..      LSLS     r0,r0,#28
        0x00000a10:    d403        ..      BMI      0xa1a ; _printf_fp_dec_real + 350
        0x00000a12:    45aa        .E      CMP      r10,r5
        0x00000a14:    db01        ..      BLT      0xa1a ; _printf_fp_dec_real + 350
        0x00000a16:    f04f3aff    O..:    MOV      r10,#0xffffffff
        0x00000a1a:    2100        .!      MOVS     r1,#0
        0x00000a1c:    f1b74f00    ...O    CMP      r7,#0x80000000
        0x00000a20:    f10d0843    ..C.    ADD      r8,sp,#0x43
        0x00000a24:    f88d1043    ..C.    STRB     r1,[sp,#0x43]
        0x00000a28:    d024        $.      BEQ      0xa74 ; _printf_fp_dec_real + 440
        0x00000a2a:    2002        .       MOVS     r0,#2
        0x00000a2c:    232b        +#      MOVS     r3,#0x2b
        0x00000a2e:    2f00        ./      CMP      r7,#0
        0x00000a30:    da01        ..      BGE      0xa36 ; _printf_fp_dec_real + 378
        0x00000a32:    427f        .B      RSBS     r7,r7,#0
        0x00000a34:    232d        -#      MOVS     r3,#0x2d
        0x00000a36:    210a        .!      MOVS     r1,#0xa
        0x00000a38:    1e02        ..      SUBS     r2,r0,#0
        0x00000a3a:    f1a00001    ....    SUB      r0,r0,#1
        0x00000a3e:    dc00        ..      BGT      0xa42 ; _printf_fp_dec_real + 390
        0x00000a40:    b15f        _.      CBZ      r7,0xa5a ; _printf_fp_dec_real + 414
        0x00000a42:    fb97fcf1    ....    SDIV     r12,r7,r1
        0x00000a46:    fb97f2f1    ....    SDIV     r2,r7,r1
        0x00000a4a:    fb017c1c    ...|    MLS      r12,r1,r12,r7
        0x00000a4e:    4617        .F      MOV      r7,r2
        0x00000a50:    f10c0c30    ..0.    ADD      r12,r12,#0x30
        0x00000a54:    f808cd01    ....    STRB     r12,[r8,#-1]!
        0x00000a58:    e7ee        ..      B        0xa38 ; _printf_fp_dec_real + 380
        0x00000a5a:    f1a80001    ....    SUB      r0,r8,#1
        0x00000a5e:    7003        .p      STRB     r3,[r0,#0]
        0x00000a60:    8821        !.      LDRH     r1,[r4,#0]
        0x00000a62:    0509        ..      LSLS     r1,r1,#20
        0x00000a64:    d501        ..      BPL      0xa6a ; _printf_fp_dec_real + 430
        0x00000a66:    2145        E!      MOVS     r1,#0x45
        0x00000a68:    e000        ..      B        0xa6c ; _printf_fp_dec_real + 432
        0x00000a6a:    2165        e!      MOVS     r1,#0x65
        0x00000a6c:    f1a00801    ....    SUB      r8,r0,#1
        0x00000a70:    f8001c01    ....    STRB     r1,[r0,#-1]
        0x00000a74:    9809        ..      LDR      r0,[sp,#0x24]
        0x00000a76:    a90f        ..      ADD      r1,sp,#0x3c
        0x00000a78:    eba10708    ....    SUB      r7,r1,r8
        0x00000a7c:    1dff        ..      ADDS     r7,r7,#7
        0x00000a7e:    b100        ..      CBZ      r0,0xa82 ; _printf_fp_dec_real + 454
        0x00000a80:    2001        .       MOVS     r0,#1
        0x00000a82:    1941        A.      ADDS     r1,r0,r5
        0x00000a84:    eb0170ea    ...p    ADD      r0,r1,r10,ASR #31
        0x00000a88:    69a1        .i      LDR      r1,[r4,#0x18]
        0x00000a8a:    4438        8D      ADD      r0,r0,r7
        0x00000a8c:    1a08        ..      SUBS     r0,r1,r0
        0x00000a8e:    1e40        @.      SUBS     r0,r0,#1
        0x00000a90:    61a0        .a      STR      r0,[r4,#0x18]
        0x00000a92:    7820         x      LDRB     r0,[r4,#0]
        0x00000a94:    06c0        ..      LSLS     r0,r0,#27
        0x00000a96:    d402        ..      BMI      0xa9e ; _printf_fp_dec_real + 482
        0x00000a98:    4620         F      MOV      r0,r4
        0x00000a9a:    f3af8000    ....    NOP.W    
        0x00000a9e:    9809        ..      LDR      r0,[sp,#0x24]
        0x00000aa0:    b128        (.      CBZ      r0,0xaae ; _printf_fp_dec_real + 498
        0x00000aa2:    e9d42101    ...!    LDRD     r2,r1,[r4,#4]
        0x00000aa6:    4790        .G      BLX      r2
        0x00000aa8:    6a20         j      LDR      r0,[r4,#0x20]
        0x00000aaa:    1c40        @.      ADDS     r0,r0,#1
        0x00000aac:    6220         b      STR      r0,[r4,#0x20]
        0x00000aae:    7820         x      LDRB     r0,[r4,#0]
        0x00000ab0:    06c0        ..      LSLS     r0,r0,#27
        0x00000ab2:    d522        ".      BPL      0xafa ; _printf_fp_dec_real + 574
        0x00000ab4:    4620         F      MOV      r0,r4
        0x00000ab6:    f3af8000    ....    NOP.W    
        0x00000aba:    e01e        ..      B        0xafa ; _printf_fp_dec_real + 574
        0x00000abc:    2e00        ..      CMP      r6,#0
        0x00000abe:    db04        ..      BLT      0xaca ; _printf_fp_dec_real + 526
        0x00000ac0:    45b3        .E      CMP      r11,r6
        0x00000ac2:    dd02        ..      BLE      0xaca ; _printf_fp_dec_real + 526
        0x00000ac4:    a801        ..      ADD      r0,sp,#4
        0x00000ac6:    5d80        .]      LDRB     r0,[r0,r6]
        0x00000ac8:    e000        ..      B        0xacc ; _printf_fp_dec_real + 528
        0x00000aca:    2030        0       MOVS     r0,#0x30
        0x00000acc:    e9d42101    ...!    LDRD     r2,r1,[r4,#4]
        0x00000ad0:    4790        .G      BLX      r2
        0x00000ad2:    6a20         j      LDR      r0,[r4,#0x20]
        0x00000ad4:    1c40        @.      ADDS     r0,r0,#1
        0x00000ad6:    6220         b      STR      r0,[r4,#0x20]
        0x00000ad8:    1c76        v.      ADDS     r6,r6,#1
        0x00000ada:    f1aa0001    ....    SUB      r0,r10,#1
        0x00000ade:    ea5f0a00    _...    MOVS     r10,r0
        0x00000ae2:    d10a        ..      BNE      0xafa ; _printf_fp_dec_real + 574
        0x00000ae4:    f000f832    ..2.    BL       __rt_locale ; 0xb4c
        0x00000ae8:    68c0        .h      LDR      r0,[r0,#0xc]
        0x00000aea:    6801        .h      LDR      r1,[r0,#0]
        0x00000aec:    5c40        @\      LDRB     r0,[r0,r1]
        0x00000aee:    e9d42101    ...!    LDRD     r2,r1,[r4,#4]
        0x00000af2:    4790        .G      BLX      r2
        0x00000af4:    6a20         j      LDR      r0,[r4,#0x20]
        0x00000af6:    1c40        @.      ADDS     r0,r0,#1
        0x00000af8:    6220         b      STR      r0,[r4,#0x20]
        0x00000afa:    1e28        (.      SUBS     r0,r5,#0
        0x00000afc:    f1a50501    ....    SUB      r5,r5,#1
        0x00000b00:    dcdc        ..      BGT      0xabc ; _printf_fp_dec_real + 512
        0x00000b02:    e007        ..      B        0xb14 ; _printf_fp_dec_real + 600
        0x00000b04:    e9d42101    ...!    LDRD     r2,r1,[r4,#4]
        0x00000b08:    f8180b01    ....    LDRB     r0,[r8],#1
        0x00000b0c:    4790        .G      BLX      r2
        0x00000b0e:    6a20         j      LDR      r0,[r4,#0x20]
        0x00000b10:    1c40        @.      ADDS     r0,r0,#1
        0x00000b12:    6220         b      STR      r0,[r4,#0x20]
        0x00000b14:    1e38        8.      SUBS     r0,r7,#0
        0x00000b16:    f1a70701    ....    SUB      r7,r7,#1
        0x00000b1a:    dcf3        ..      BGT      0xb04 ; _printf_fp_dec_real + 584
        0x00000b1c:    4620         F      MOV      r0,r4
        0x00000b1e:    f3af8000    ....    NOP.W    
        0x00000b22:    2003        .       MOVS     r0,#3
        0x00000b24:    b011        ..      ADD      sp,sp,#0x44
        0x00000b26:    e641        A.      B        0x7ac ; _fp_digits + 160
    .text
    _printf_char_file
        0x00000b28:    4b07        .K      LDR      r3,[pc,#28] ; [0xb48] = 0xd3b
        0x00000b2a:    b570        p.      PUSH     {r4-r6,lr}
        0x00000b2c:    460d        .F      MOV      r5,r1
        0x00000b2e:    447b        {D      ADD      r3,r3,pc
        0x00000b30:    f000f85b    ..[.    BL       _printf_char_common ; 0xbea
        0x00000b34:    4604        .F      MOV      r4,r0
        0x00000b36:    4628        (F      MOV      r0,r5
        0x00000b38:    f000fe93    ....    BL       ferror ; 0x1862
        0x00000b3c:    b110        ..      CBZ      r0,0xb44 ; _printf_char_file + 28
        0x00000b3e:    f04f30ff    O..0    MOV      r0,#0xffffffff
        0x00000b42:    bd70        p.      POP      {r4-r6,pc}
        0x00000b44:    4620         F      MOV      r0,r4
        0x00000b46:    bd70        p.      POP      {r4-r6,pc}
    $d
        0x00000b48:    00000d3b    ;...    DCD    3387
    $t
    .text
    __rt_locale
        0x00000b4c:    4800        .H      LDR      r0,[pc,#0] ; [0xb50] = 0x20000038
        0x00000b4e:    4770        pG      BX       lr
    $d
        0x00000b50:    20000038    8..     DCD    536870968
    $t
    .text
    _ll_udiv10
        0x00000b54:    b530        0.      PUSH     {r4,r5,lr}
        0x00000b56:    f1b0020a    ....    SUBS     r2,r0,#0xa
        0x00000b5a:    ea4f0e90    O...    LSR      lr,r0,#2
        0x00000b5e:    f1710300    q...    SBCS     r3,r1,#0
        0x00000b62:    ea4e7e81    N..~    ORR      lr,lr,r1,LSL #30
        0x00000b66:    ebb0000e    ....    SUBS     r0,r0,lr
        0x00000b6a:    eb610191    a...    SBC      r1,r1,r1,LSR #2
        0x00000b6e:    ea4f1e10    O...    LSR      lr,r0,#4
        0x00000b72:    ea4e7e01    N..~    ORR      lr,lr,r1,LSL #28
        0x00000b76:    eb10000e    ....    ADDS     r0,r0,lr
        0x00000b7a:    eb411111    A...    ADC      r1,r1,r1,LSR #4
        0x00000b7e:    ea4f2e10    O...    LSR      lr,r0,#8
        0x00000b82:    ea4e6e01    N..n    ORR      lr,lr,r1,LSL #24
        0x00000b86:    eb10000e    ....    ADDS     r0,r0,lr
        0x00000b8a:    eb412111    A..!    ADC      r1,r1,r1,LSR #8
        0x00000b8e:    ea4f4e10    O..N    LSR      lr,r0,#16
        0x00000b92:    ea4e4e01    N..N    ORR      lr,lr,r1,LSL #16
        0x00000b96:    eb10000e    ....    ADDS     r0,r0,lr
        0x00000b9a:    eb414111    A..A    ADC      r1,r1,r1,LSR #16
        0x00000b9e:    1840        @.      ADDS     r0,r0,r1
        0x00000ba0:    f1410100    A...    ADC      r1,r1,#0
        0x00000ba4:    ea4f00d0    O...    LSR      r0,r0,#3
        0x00000ba8:    ea407041    @.Ap    ORR      r0,r0,r1,LSL #29
        0x00000bac:    ea4f01d1    O...    LSR      r1,r1,#3
        0x00000bb0:    eb100580    ....    ADDS     r5,r0,r0,LSL #2
        0x00000bb4:    ea4f0481    O...    LSL      r4,r1,#2
        0x00000bb8:    ea447490    D..t    ORR      r4,r4,r0,LSR #30
        0x00000bbc:    eb440401    D...    ADC      r4,r4,r1
        0x00000bc0:    196d        m.      ADDS     r5,r5,r5
        0x00000bc2:    eb440404    D...    ADC      r4,r4,r4
        0x00000bc6:    1b52        R.      SUBS     r2,r2,r5
        0x00000bc8:    41a3        .A      SBCS     r3,r3,r4
        0x00000bca:    f04f0300    O...    MOV      r3,#0
        0x00000bce:    bf48        H.      IT       MI
        0x00000bd0:    320a        .2      ADDMI    r2,r2,#0xa
        0x00000bd2:    d500        ..      BPL      0xbd6 ; _ll_udiv10 + 130
        0x00000bd4:    bd30        0.      POP      {r4,r5,pc}
        0x00000bd6:    1c40        @.      ADDS     r0,r0,#1
        0x00000bd8:    f1410100    A...    ADC      r1,r1,#0
        0x00000bdc:    bd30        0.      POP      {r4,r5,pc}
        0x00000bde:    0000        ..      MOVS     r0,r0
    .text
    _printf_input_char
        0x00000be0:    6901        .i      LDR      r1,[r0,#0x10]
        0x00000be2:    1c4a        J.      ADDS     r2,r1,#1
        0x00000be4:    6102        .a      STR      r2,[r0,#0x10]
        0x00000be6:    7808        .x      LDRB     r0,[r1,#0]
        0x00000be8:    4770        pG      BX       lr
    _printf_char_common
        0x00000bea:    b500        ..      PUSH     {lr}
        0x00000bec:    b08f        ..      SUB      sp,sp,#0x3c
        0x00000bee:    e9cd3101    ...1    STRD     r3,r1,[sp,#4]
        0x00000bf2:    2100        .!      MOVS     r1,#0
        0x00000bf4:    9105        ..      STR      r1,[sp,#0x14]
        0x00000bf6:    4905        .I      LDR      r1,[pc,#20] ; [0xc0c] = 0xffffffe5
        0x00000bf8:    4479        yD      ADD      r1,r1,pc
        0x00000bfa:    e9cd1003    ....    STRD     r1,r0,[sp,#0xc]
        0x00000bfe:    4611        .F      MOV      r1,r2
        0x00000c00:    4668        hF      MOV      r0,sp
        0x00000c02:    f7fffc9f    ....    BL       __printf ; 0x544
        0x00000c06:    b00f        ..      ADD      sp,sp,#0x3c
        0x00000c08:    bd00        ..      POP      {pc}
    $d
        0x00000c0a:    0000        ..      DCW    0
        0x00000c0c:    ffffffe5    ....    DCD    4294967269
    $t
    .text
    _printf_fp_infnan
        0x00000c10:    e92d41f0    -..A    PUSH     {r4-r8,lr}
        0x00000c14:    461f        .F      MOV      r7,r3
        0x00000c16:    4604        .F      MOV      r4,r0
        0x00000c18:    2603        .&      MOVS     r6,#3
        0x00000c1a:    6801        .h      LDR      r1,[r0,#0]
        0x00000c1c:    2a07        .*      CMP      r2,#7
        0x00000c1e:    f4016000    ...`    AND      r0,r1,#0x800
        0x00000c22:    db04        ..      BLT      0xc2e ; _printf_fp_infnan + 30
        0x00000c24:    b108        ..      CBZ      r0,0xc2a ; _printf_fp_infnan + 26
        0x00000c26:    a516        ..      ADR      r5,{pc}+0x5a ; 0xc80
        0x00000c28:    e005        ..      B        0xc36 ; _printf_fp_infnan + 38
        0x00000c2a:    a516        ..      ADR      r5,{pc}+0x5a ; 0xc84
        0x00000c2c:    e003        ..      B        0xc36 ; _printf_fp_infnan + 38
        0x00000c2e:    b108        ..      CBZ      r0,0xc34 ; _printf_fp_infnan + 36
        0x00000c30:    a515        ..      ADR      r5,{pc}+0x58 ; 0xc88
        0x00000c32:    e000        ..      B        0xc36 ; _printf_fp_infnan + 38
        0x00000c34:    a515        ..      ADR      r5,{pc}+0x58 ; 0xc8c
        0x00000c36:    f0210010    !...    BIC      r0,r1,#0x10
        0x00000c3a:    6020         `      STR      r0,[r4,#0]
        0x00000c3c:    69a0        .i      LDR      r0,[r4,#0x18]
        0x00000c3e:    1ec0        ..      SUBS     r0,r0,#3
        0x00000c40:    61a0        .a      STR      r0,[r4,#0x18]
        0x00000c42:    b10f        ..      CBZ      r7,0xc48 ; _printf_fp_infnan + 56
        0x00000c44:    1e40        @.      SUBS     r0,r0,#1
        0x00000c46:    61a0        .a      STR      r0,[r4,#0x18]
        0x00000c48:    4620         F      MOV      r0,r4
        0x00000c4a:    f3af8000    ....    NOP.W    
        0x00000c4e:    b14f        O.      CBZ      r7,0xc64 ; _printf_fp_infnan + 84
        0x00000c50:    e9d42101    ...!    LDRD     r2,r1,[r4,#4]
        0x00000c54:    4638        8F      MOV      r0,r7
        0x00000c56:    4790        .G      BLX      r2
        0x00000c58:    6a20         j      LDR      r0,[r4,#0x20]
        0x00000c5a:    1c40        @.      ADDS     r0,r0,#1
        0x00000c5c:    6220         b      STR      r0,[r4,#0x20]
        0x00000c5e:    1cc0        ..      ADDS     r0,r0,#3
        0x00000c60:    6220         b      STR      r0,[r4,#0x20]
        0x00000c62:    e006        ..      B        0xc72 ; _printf_fp_infnan + 98
        0x00000c64:    6a20         j      LDR      r0,[r4,#0x20]
        0x00000c66:    e7fa        ..      B        0xc5e ; _printf_fp_infnan + 78
        0x00000c68:    e9d42101    ...!    LDRD     r2,r1,[r4,#4]
        0x00000c6c:    f8150b01    ....    LDRB     r0,[r5],#1
        0x00000c70:    4790        .G      BLX      r2
        0x00000c72:    1e76        v.      SUBS     r6,r6,#1
        0x00000c74:    d2f8        ..      BCS      0xc68 ; _printf_fp_infnan + 88
        0x00000c76:    4620         F      MOV      r0,r4
        0x00000c78:    f3af8000    ....    NOP.W    
        0x00000c7c:    e8bd81f0    ....    POP      {r4-r8,pc}
    $d
        0x00000c80:    004e414e    NAN.    DCD    5128526
        0x00000c84:    006e616e    nan.    DCD    7233902
        0x00000c88:    00464e49    INF.    DCD    4607561
        0x00000c8c:    00666e69    inf.    DCD    6712937
    $t
    .text
    _btod_etento
        0x00000c90:    e92d47f0    -..G    PUSH     {r4-r10,lr}
        0x00000c94:    4681        .F      MOV      r9,r0
        0x00000c96:    4616        .F      MOV      r6,r2
        0x00000c98:    b08a        ..      SUB      sp,sp,#0x28
        0x00000c9a:    4835        5H      LDR      r0,[pc,#212] ; [0xd70] = 0x120c
        0x00000c9c:    4478        xD      ADD      r0,r0,pc
        0x00000c9e:    c80d        ..      LDM      r0,{r0,r2,r3}
        0x00000ca0:    e88d000d    ....    STM      sp,{r0,r2,r3}
        0x00000ca4:    4832        2H      LDR      r0,[pc,#200] ; [0xd70] = 0x120c
        0x00000ca6:    4478        xD      ADD      r0,r0,pc
        0x00000ca8:    1c80        ..      ADDS     r0,r0,#2
        0x00000caa:    ac03        ..      ADD      r4,sp,#0xc
        0x00000cac:    c80d        ..      LDM      r0,{r0,r2,r3}
        0x00000cae:    e884000d    ....    STM      r4,{r0,r2,r3}
        0x00000cb2:    f641309b    A..0    MOV      r0,#0x1b9b
        0x00000cb6:    4408        .D      ADD      r0,r0,r1
        0x00000cb8:    2137        7!      MOVS     r1,#0x37
        0x00000cba:    fb90f2f1    ....    SDIV     r2,r0,r1
        0x00000cbe:    fb90f5f1    ....    SDIV     r5,r0,r1
        0x00000cc2:    f1a50580    ....    SUB      r5,r5,#0x80
        0x00000cc6:    fb010412    ....    MLS      r4,r1,r2,r0
        0x00000cca:    3c1b        .<      SUBS     r4,r4,#0x1b
        0x00000ccc:    d502        ..      BPL      0xcd4 ; _btod_etento + 68
        0x00000cce:    4264        dB      RSBS     r4,r4,#0
        0x00000cd0:    2001        .       MOVS     r0,#1
        0x00000cd2:    e000        ..      B        0xcd6 ; _btod_etento + 70
        0x00000cd4:    2000        .       MOVS     r0,#0
        0x00000cd6:    f8dfa098    ....    LDR      r10,[pc,#152] ; [0xd70] = 0x120c
        0x00000cda:    4680        .F      MOV      r8,r0
        0x00000cdc:    2700        .'      MOVS     r7,#0
        0x00000cde:    44fa        .D      ADD      r10,r10,pc
        0x00000ce0:    f1aa0abe    ....    SUB      r10,r10,#0xbe
        0x00000ce4:    e00e        ..      B        0xd04 ; _btod_etento + 116
        0x00000ce6:    07e0        ..      LSLS     r0,r4,#31
        0x00000ce8:    d00a        ..      BEQ      0xd00 ; _btod_etento + 112
        0x00000cea:    4632        2F      MOV      r2,r6
        0x00000cec:    4668        hF      MOV      r0,sp
        0x00000cee:    eb070147    ..G.    ADD      r1,r7,r7,LSL #1
        0x00000cf2:    2301        .#      MOVS     r3,#1
        0x00000cf4:    eb0a0181    ....    ADD      r1,r10,r1,LSL #2
        0x00000cf8:    f000fb17    ....    BL       _btod_emul ; 0x132a
        0x00000cfc:    e88d0007    ....    STM      sp,{r0-r2}
        0x00000d00:    1064        d.      ASRS     r4,r4,#1
        0x00000d02:    1c7f        ..      ADDS     r7,r7,#1
        0x00000d04:    2c00        .,      CMP      r4,#0
        0x00000d06:    d1ee        ..      BNE      0xce6 ; _btod_etento + 86
        0x00000d08:    4f19        .O      LDR      r7,[pc,#100] ; [0xd70] = 0x120c
        0x00000d0a:    447f        .D      ADD      r7,r7,pc
        0x00000d0c:    3fae        .?      SUBS     r7,r7,#0xae
        0x00000d0e:    e019        ..      B        0xd44 ; _btod_etento + 180
        0x00000d10:    07e8        ..      LSLS     r0,r5,#31
        0x00000d12:    d015        ..      BEQ      0xd40 ; _btod_etento + 176
        0x00000d14:    eb071004    ....    ADD      r0,r7,r4,LSL #4
        0x00000d18:    f10d0a18    ....    ADD      r10,sp,#0x18
        0x00000d1c:    e890000e    ....    LDM      r0,{r1-r3}
        0x00000d20:    e88a000e    ....    STM      r10,{r1-r3}
        0x00000d24:    68c0        .h      LDR      r0,[r0,#0xc]
        0x00000d26:    42f0        .B      CMN      r0,r6
        0x00000d28:    d101        ..      BNE      0xd2e ; _btod_etento + 158
        0x00000d2a:    1998        ..      ADDS     r0,r3,r6
        0x00000d2c:    9008        ..      STR      r0,[sp,#0x20]
        0x00000d2e:    4632        2F      MOV      r2,r6
        0x00000d30:    2301        .#      MOVS     r3,#1
        0x00000d32:    a906        ..      ADD      r1,sp,#0x18
        0x00000d34:    a803        ..      ADD      r0,sp,#0xc
        0x00000d36:    f000faf8    ....    BL       _btod_emul ; 0x132a
        0x00000d3a:    ab03        ..      ADD      r3,sp,#0xc
        0x00000d3c:    e8830007    ....    STM      r3,{r0-r2}
        0x00000d40:    106d        m.      ASRS     r5,r5,#1
        0x00000d42:    1c64        d.      ADDS     r4,r4,#1
        0x00000d44:    2d00        .-      CMP      r5,#0
        0x00000d46:    d1e3        ..      BNE      0xd10 ; _btod_etento + 128
        0x00000d48:    f04f0301    O...    MOV      r3,#1
        0x00000d4c:    4632        2F      MOV      r2,r6
        0x00000d4e:    4669        iF      MOV      r1,sp
        0x00000d50:    f1b80f00    ....    CMP      r8,#0
        0x00000d54:    a803        ..      ADD      r0,sp,#0xc
        0x00000d56:    d002        ..      BEQ      0xd5e ; _btod_etento + 206
        0x00000d58:    f000fad2    ....    BL       _btod_ediv ; 0x1300
        0x00000d5c:    e001        ..      B        0xd62 ; _btod_etento + 210
        0x00000d5e:    f000fae4    ....    BL       _btod_emul ; 0x132a
        0x00000d62:    e9c90100    ....    STRD     r0,r1,[r9,#0]
        0x00000d66:    f8c92008    ...     STR      r2,[r9,#8]
        0x00000d6a:    b00a        ..      ADD      sp,sp,#0x28
        0x00000d6c:    e8bd87f0    ....    POP      {r4-r10,pc}
    $d
        0x00000d70:    0000120c    ....    DCD    4620
    $t
    .text
    exit
        0x00000d74:    b510        ..      PUSH     {r4,lr}
        0x00000d76:    4604        .F      MOV      r4,r0
        0x00000d78:    f3af8000    ....    NOP.W    
        0x00000d7c:    4620         F      MOV      r0,r4
        0x00000d7e:    e8bd4010    ...@    POP      {r4,lr}
        0x00000d82:    f7ffbb75    ..u.    B        __rt_exit ; 0x470
        0x00000d86:    0000        ..      MOVS     r0,r0
    .text
    strcmp
        0x00000d88:    f04f3c01    O..<    MOV      r12,#0x1010101
        0x00000d8c:    f8502b04    P..+    LDR      r2,[r0],#4
        0x00000d90:    f8513b04    Q..;    LDR      r3,[r1],#4
        0x00000d94:    429a        .B      CMP      r2,r3
        0x00000d96:    d121        !.      BNE      0xddc ; strcmp + 84
        0x00000d98:    eba2030c    ....    SUB      r3,r2,r12
        0x00000d9c:    4393        .C      BICS     r3,r3,r2
        0x00000d9e:    ea1313cc    ....    ANDS     r3,r3,r12,LSL #7
        0x00000da2:    d117        ..      BNE      0xdd4 ; strcmp + 76
        0x00000da4:    f8502b04    P..+    LDR      r2,[r0],#4
        0x00000da8:    f8513b04    Q..;    LDR      r3,[r1],#4
        0x00000dac:    429a        .B      CMP      r2,r3
        0x00000dae:    d115        ..      BNE      0xddc ; strcmp + 84
        0x00000db0:    eba2030c    ....    SUB      r3,r2,r12
        0x00000db4:    4393        .C      BICS     r3,r3,r2
        0x00000db6:    ea1313cc    ....    ANDS     r3,r3,r12,LSL #7
        0x00000dba:    d10b        ..      BNE      0xdd4 ; strcmp + 76
        0x00000dbc:    f8502b04    P..+    LDR      r2,[r0],#4
        0x00000dc0:    f8513b04    Q..;    LDR      r3,[r1],#4
        0x00000dc4:    429a        .B      CMP      r2,r3
        0x00000dc6:    d109        ..      BNE      0xddc ; strcmp + 84
        0x00000dc8:    eba2030c    ....    SUB      r3,r2,r12
        0x00000dcc:    4393        .C      BICS     r3,r3,r2
        0x00000dce:    ea1313cc    ....    ANDS     r3,r3,r12,LSL #7
        0x00000dd2:    d0db        ..      BEQ      0xd8c ; strcmp + 4
        0x00000dd4:    f04f0000    O...    MOV      r0,#0
        0x00000dd8:    4770        pG      BX       lr
        0x00000dda:    bf00        ..      NOP      
        0x00000ddc:    1ad0        ..      SUBS     r0,r2,r3
        0x00000dde:    ba01        ..      REV      r1,r0
        0x00000de0:    fab1f181    ....    CLZ      r1,r1
        0x00000de4:    f0010118    ....    AND      r1,r1,#0x18
        0x00000de8:    fa22f001    "...    LSR      r0,r2,r1
        0x00000dec:    40cb        .@      LSRS     r3,r3,r1
        0x00000dee:    f1c10120    .. .    RSB      r1,r1,#0x20
        0x00000df2:    b2db        ..      UXTB     r3,r3
        0x00000df4:    b2c0        ..      UXTB     r0,r0
        0x00000df6:    1ac0        ..      SUBS     r0,r0,r3
        0x00000df8:    fa2cf301    ,...    LSR      r3,r12,r1
        0x00000dfc:    1ad1        ..      SUBS     r1,r2,r3
        0x00000dfe:    4391        .C      BICS     r1,r1,r2
        0x00000e00:    ea1111c3    ....    ANDS     r1,r1,r3,LSL #7
        0x00000e04:    d1e6        ..      BNE      0xdd4 ; strcmp + 76
        0x00000e06:    4770        pG      BX       lr
    CL$$btod_d2e
    _btod_d2e
        0x00000e08:    ea5f0c40    _.@.    LSLS     r12,r0,#1
        0x00000e0c:    bf08        ..      IT       EQ
        0x00000e0e:    f0910f00    ....    TEQEQ    r1,#0
        0x00000e12:    ea4f238c    O..#    LSL      r3,r12,#10
        0x00000e16:    ea4f22c1    O.."    LSL      r2,r1,#11
        0x00000e1a:    ea435151    C.QQ    ORR      r1,r3,r1,LSR #21
        0x00000e1e:    ea4f501c    O..P    LSR      r0,r12,#20
        0x00000e22:    bf18        ..      IT       NE
        0x00000e24:    f50040f0    ...@    ADDNE    r0,r0,#0x7800
        0x00000e28:    ea4f0030    O.0.    RRX      r0,r0
        0x00000e2c:    bf18        ..      IT       NE
        0x00000e2e:    f0414100    A..A    ORRNE    r1,r1,#0x80000000
        0x00000e32:    ea5f5c6c    _.l\    ASRS     r12,r12,#21
        0x00000e36:    f0008029    ..).    BEQ.W    _d2e_norm_op1 ; 0xe8c
        0x00000e3a:    f1bc3fff    ...?    CMP      r12,#0xffffffff
        0x00000e3e:    bf08        ..      IT       EQ
        0x00000e40:    f0404080    @..@    ORREQ    r0,r0,#0x40000000
        0x00000e44:    4770        pG      BX       lr
    CL$$btod_d2e_denorm_low
    _d2e_denorm_low
        0x00000e46:    0c13        ..      LSRS     r3,r2,#16
        0x00000e48:    bf06        ..      ITTE     EQ
        0x00000e4a:    0412        ..      LSLEQ    r2,r2,#16
        0x00000e4c:    f04f0c10    O...    MOVEQ    r12,#0x10
        0x00000e50:    f04f0c00    O...    MOVNE    r12,#0
        0x00000e54:    0e13        ..      LSRS     r3,r2,#24
        0x00000e56:    bf04        ..      ITT      EQ
        0x00000e58:    0212        ..      LSLEQ    r2,r2,#8
        0x00000e5a:    f10c0c08    ....    ADDEQ    r12,r12,#8
        0x00000e5e:    0f13        ..      LSRS     r3,r2,#28
        0x00000e60:    bf04        ..      ITT      EQ
        0x00000e62:    0112        ..      LSLEQ    r2,r2,#4
        0x00000e64:    f10c0c04    ....    ADDEQ    r12,r12,#4
        0x00000e68:    0f93        ..      LSRS     r3,r2,#30
        0x00000e6a:    bf04        ..      ITT      EQ
        0x00000e6c:    0092        ..      LSLEQ    r2,r2,#2
        0x00000e6e:    f10c0c02    ....    ADDEQ    r12,r12,#2
        0x00000e72:    0fd3        ..      LSRS     r3,r2,#31
        0x00000e74:    bf04        ..      ITT      EQ
        0x00000e76:    0052        R.      LSLEQ    r2,r2,#1
        0x00000e78:    f10c0c01    ....    ADDEQ    r12,r12,#1
        0x00000e7c:    4611        .F      MOV      r1,r2
        0x00000e7e:    f04f0200    O...    MOV      r2,#0
        0x00000e82:    f1a0001f    ....    SUB      r0,r0,#0x1f
        0x00000e86:    eba0000c    ....    SUB      r0,r0,r12
        0x00000e8a:    4770        pG      BX       lr
    CL$$btod_d2e_norm_op1
    _d2e_norm_op1
        0x00000e8c:    f0114f00    ...O    TST      r1,#0x80000000
        0x00000e90:    bf08        ..      IT       EQ
        0x00000e92:    4770        pG      BXEQ     lr
        0x00000e94:    f0314100    1..A    BICS     r1,r1,#0x80000000
        0x00000e98:    f43fafd5    ?...    BEQ.W    _d2e_denorm_low ; 0xe46
        0x00000e9c:    0c0b        ..      LSRS     r3,r1,#16
        0x00000e9e:    bf06        ..      ITTE     EQ
        0x00000ea0:    0409        ..      LSLEQ    r1,r1,#16
        0x00000ea2:    f04f0c10    O...    MOVEQ    r12,#0x10
        0x00000ea6:    f04f0c00    O...    MOVNE    r12,#0
        0x00000eaa:    0e0b        ..      LSRS     r3,r1,#24
        0x00000eac:    bf04        ..      ITT      EQ
        0x00000eae:    0209        ..      LSLEQ    r1,r1,#8
        0x00000eb0:    f10c0c08    ....    ADDEQ    r12,r12,#8
        0x00000eb4:    0f0b        ..      LSRS     r3,r1,#28
        0x00000eb6:    bf04        ..      ITT      EQ
        0x00000eb8:    0109        ..      LSLEQ    r1,r1,#4
        0x00000eba:    f10c0c04    ....    ADDEQ    r12,r12,#4
        0x00000ebe:    0f8b        ..      LSRS     r3,r1,#30
        0x00000ec0:    bf04        ..      ITT      EQ
        0x00000ec2:    0089        ..      LSLEQ    r1,r1,#2
        0x00000ec4:    f10c0c02    ....    ADDEQ    r12,r12,#2
        0x00000ec8:    0fcb        ..      LSRS     r3,r1,#31
        0x00000eca:    bf04        ..      ITT      EQ
        0x00000ecc:    0049        I.      LSLEQ    r1,r1,#1
        0x00000ece:    f10c0c01    ....    ADDEQ    r12,r12,#1
        0x00000ed2:    f1cc0320    .. .    RSB      r3,r12,#0x20
        0x00000ed6:    eba0000c    ....    SUB      r0,r0,r12
        0x00000eda:    fa22f303    "...    LSR      r3,r2,r3
        0x00000ede:    fa02f20c    ....    LSL      r2,r2,r12
        0x00000ee2:    ea410103    A...    ORR      r1,r1,r3
        0x00000ee6:    f1000001    ....    ADD      r0,r0,#1
        0x00000eea:    4770        pG      BX       lr
    CL$$btod_div_common
    __btod_div_common
        0x00000eec:    f0204c7f     ..L    BIC      r12,r0,#0xff000000
        0x00000ef0:    ea800003    ....    EOR      r0,r0,r3
        0x00000ef4:    f023477f    #..G    BIC      r7,r3,#0xff000000
        0x00000ef8:    ebac0307    ....    SUB      r3,r12,r7
        0x00000efc:    f503537c    ..|S    ADD      r3,r3,#0x3f00
        0x00000f00:    f0004000    ...@    AND      r0,r0,#0x80000000
        0x00000f04:    f10303ff    ....    ADD      r3,r3,#0xff
        0x00000f08:    e92d4980    -..I    PUSH     {r7,r8,r11,lr}
        0x00000f0c:    ea4f4b15    O..K    LSR      r11,r5,#16
        0x00000f10:    b409        ..      PUSH     {r0,r3}
        0x00000f12:    ea4f4314    O..C    LSR      r3,r4,#16
        0x00000f16:    ea254e0b    %..N    BIC      lr,r5,r11,LSL #16
        0x00000f1a:    ea244803    $..H    BIC      r8,r4,r3,LSL #16
        0x00000f1e:    f20f2604    ...&    ADR.W    r6,{pc}+0x206 ; 0x1124
        0x00000f22:    eb062713    ...'    ADD      r7,r6,r3,LSR #8
        0x00000f26:    0849        I.      LSRS     r1,r1,#1
        0x00000f28:    783e        >x      LDRB     r6,[r7,#0]
        0x00000f2a:    ea5f0232    _.2.    RRXS     r2,r2
        0x00000f2e:    fb036706    ...g    MLA      r7,r3,r6,r6
        0x00000f32:    f5c70700    ....    RSB      r7,r7,#0x800000
        0x00000f36:    fb07f606    ....    MUL      r6,r7,r6
        0x00000f3a:    ea4f3754    O.T7    LSR      r7,r4,#13
        0x00000f3e:    ea4f46d6    O..F    LSR      r6,r6,#19
        0x00000f42:    f1060602    ....    ADD      r6,r6,#2
        0x00000f46:    fb076c06    ...l    MLA      r12,r7,r6,r6
        0x00000f4a:    f1cc5c00    ...\    RSB      r12,r12,#0x20000000
        0x00000f4e:    ea4f471c    O..G    LSR      r7,r12,#16
        0x00000f52:    ea2c4c07    ,..L    BIC      r12,r12,r7,LSL #16
        0x00000f56:    fb07f406    ....    MUL      r4,r7,r6
        0x00000f5a:    fb0cf506    ....    MUL      r5,r12,r6
        0x00000f5e:    eb044615    ...F    ADD      r6,r4,r5,LSR #16
        0x00000f62:    ea4f1696    O...    LSR      r6,r6,#6
        0x00000f66:    bf34        4.      ITE      CC
        0x00000f68:    2000        .       MOVCC    r0,#0
        0x00000f6a:    f04f4000    O..@    MOVCS    r0,#0x80000000
        0x00000f6e:    ea4f37d1    O..7    LSR      r7,r1,#15
        0x00000f72:    fb06fc07    ....    MUL      r12,r6,r7
        0x00000f76:    ea4f4c1c    O..L    LSR      r12,r12,#16
        0x00000f7a:    fb0cf70b    ....    MUL      r7,r12,r11
        0x00000f7e:    1bd2        ..      SUBS     r2,r2,r7
        0x00000f80:    fb03f70c    ....    MUL      r7,r3,r12
        0x00000f84:    eb610107    a...    SBC      r1,r1,r7
        0x00000f88:    fb0cf70e    ....    MUL      r7,r12,lr
        0x00000f8c:    ebb04007    ...@    SUBS     r0,r0,r7,LSL #16
        0x00000f90:    eb724217    r..B    SBCS     r2,r2,r7,LSR #16
        0x00000f94:    fb0cf708    ....    MUL      r7,r12,r8
        0x00000f98:    bf34        4.      ITE      CC
        0x00000f9a:    eba24207    ...B    SUBCC    r2,r2,r7,LSL #16
        0x00000f9e:    ebb24207    ...B    SUBSCS   r2,r2,r7,LSL #16
        0x00000fa2:    eb614117    a..A    SBC      r1,r1,r7,LSR #16
        0x00000fa6:    ea4f440c    O..D    LSL      r4,r12,#16
        0x00000faa:    ea4f0791    O...    LSR      r7,r1,#2
        0x00000fae:    fb06fc07    ....    MUL      r12,r6,r7
        0x00000fb2:    ea4f4c1c    O..L    LSR      r12,r12,#16
        0x00000fb6:    fb0cf70b    ....    MUL      r7,r12,r11
        0x00000fba:    ebb040c7    ...@    SUBS     r0,r0,r7,LSL #19
        0x00000fbe:    eb723257    r.W2    SBCS     r2,r2,r7,LSR #13
        0x00000fc2:    fb03f70c    ....    MUL      r7,r3,r12
        0x00000fc6:    bf34        4.      ITE      CC
        0x00000fc8:    eba242c7    ...B    SUBCC    r2,r2,r7,LSL #19
        0x00000fcc:    ebb242c7    ...B    SUBSCS   r2,r2,r7,LSL #19
        0x00000fd0:    eb613157    a.W1    SBC      r1,r1,r7,LSR #13
        0x00000fd4:    fb0cf70e    ....    MUL      r7,r12,lr
        0x00000fd8:    ebb000c7    ....    SUBS     r0,r0,r7,LSL #3
        0x00000fdc:    eb727257    r.Wr    SBCS     r2,r2,r7,LSR #29
        0x00000fe0:    fb0cf708    ....    MUL      r7,r12,r8
        0x00000fe4:    bf34        4.      ITE      CC
        0x00000fe6:    eba202c7    ....    SUBCC    r2,r2,r7,LSL #3
        0x00000fea:    ebb202c7    ....    SUBSCS   r2,r2,r7,LSL #3
        0x00000fee:    eb617157    a.Wq    SBC      r1,r1,r7,LSR #29
        0x00000ff2:    9f03        ..      LDR      r7,[sp,#0xc]
        0x00000ff4:    ea4f6181    O..a    LSL      r1,r1,#26
        0x00000ff8:    ea411192    A...    ORR      r1,r1,r2,LSR #6
        0x00000ffc:    eb0404cc    ....    ADD      r4,r4,r12,LSL #3
        0x00001000:    ea4f37d1    O..7    LSR      r7,r1,#15
        0x00001004:    ea4f6282    O..b    LSL      r2,r2,#26
        0x00001008:    fb06fc07    ....    MUL      r12,r6,r7
        0x0000100c:    ea421290    B...    ORR      r2,r2,r0,LSR #6
        0x00001010:    ea4f6080    O..`    LSL      r0,r0,#26
        0x00001014:    ea4f4c1c    O..L    LSR      r12,r12,#16
        0x00001018:    fb0cf70b    ....    MUL      r7,r12,r11
        0x0000101c:    1bd2        ..      SUBS     r2,r2,r7
        0x0000101e:    fb03f70c    ....    MUL      r7,r3,r12
        0x00001022:    eb610107    a...    SBC      r1,r1,r7
        0x00001026:    fb0cf70e    ....    MUL      r7,r12,lr
        0x0000102a:    ebb04007    ...@    SUBS     r0,r0,r7,LSL #16
        0x0000102e:    eb724217    r..B    SBCS     r2,r2,r7,LSR #16
        0x00001032:    fb0cf708    ....    MUL      r7,r12,r8
        0x00001036:    bf34        4.      ITE      CC
        0x00001038:    eba24207    ...B    SUBCC    r2,r2,r7,LSL #16
        0x0000103c:    ebb24207    ...B    SUBSCS   r2,r2,r7,LSL #16
        0x00001040:    eb614117    a..A    SBC      r1,r1,r7,LSR #16
        0x00001044:    ea4f558c    O..U    LSL      r5,r12,#22
        0x00001048:    ea4f0791    O...    LSR      r7,r1,#2
        0x0000104c:    eb04249c    ...$    ADD      r4,r4,r12,LSR #10
        0x00001050:    fb06fc07    ....    MUL      r12,r6,r7
        0x00001054:    ea4f4c1c    O..L    LSR      r12,r12,#16
        0x00001058:    fb0cf70b    ....    MUL      r7,r12,r11
        0x0000105c:    ebb040c7    ...@    SUBS     r0,r0,r7,LSL #19
        0x00001060:    eb723257    r.W2    SBCS     r2,r2,r7,LSR #13
        0x00001064:    fb03f70c    ....    MUL      r7,r3,r12
        0x00001068:    bf34        4.      ITE      CC
        0x0000106a:    eba242c7    ...B    SUBCC    r2,r2,r7,LSL #19
        0x0000106e:    ebb242c7    ...B    SUBSCS   r2,r2,r7,LSL #19
        0x00001072:    eb613157    a.W1    SBC      r1,r1,r7,LSR #13
        0x00001076:    fb0cf70e    ....    MUL      r7,r12,lr
        0x0000107a:    ebb000c7    ....    SUBS     r0,r0,r7,LSL #3
        0x0000107e:    eb727257    r.Wr    SBCS     r2,r2,r7,LSR #29
        0x00001082:    fb0cf708    ....    MUL      r7,r12,r8
        0x00001086:    bf34        4.      ITE      CC
        0x00001088:    eba202c7    ....    SUBCC    r2,r2,r7,LSL #3
        0x0000108c:    ebb202c7    ....    SUBSCS   r2,r2,r7,LSL #3
        0x00001090:    eb617157    a.Wq    SBC      r1,r1,r7,LSR #29
        0x00001094:    eb15254c    ..L%    ADDS     r5,r5,r12,LSL #9
        0x00001098:    ea4f6181    O..a    LSL      r1,r1,#26
        0x0000109c:    ea411192    A...    ORR      r1,r1,r2,LSR #6
        0x000010a0:    ea4f6282    O..b    LSL      r2,r2,#26
        0x000010a4:    ea4f37d1    O..7    LSR      r7,r1,#15
        0x000010a8:    ea421290    B...    ORR      r2,r2,r0,LSR #6
        0x000010ac:    fb06fc07    ....    MUL      r12,r6,r7
        0x000010b0:    f1440400    D...    ADC      r4,r4,#0
        0x000010b4:    ea4f6080    O..`    LSL      r0,r0,#26
        0x000010b8:    ea4f4c1c    O..L    LSR      r12,r12,#16
        0x000010bc:    fb0cf70b    ....    MUL      r7,r12,r11
        0x000010c0:    1bd2        ..      SUBS     r2,r2,r7
        0x000010c2:    fb03f70c    ....    MUL      r7,r3,r12
        0x000010c6:    eb610107    a...    SBC      r1,r1,r7
        0x000010ca:    fb0cf70e    ....    MUL      r7,r12,lr
        0x000010ce:    ebb04007    ...@    SUBS     r0,r0,r7,LSL #16
        0x000010d2:    eb724217    r..B    SBCS     r2,r2,r7,LSR #16
        0x000010d6:    fb0cf708    ....    MUL      r7,r12,r8
        0x000010da:    bf34        4.      ITE      CC
        0x000010dc:    eba24207    ...B    SUBCC    r2,r2,r7,LSL #16
        0x000010e0:    ebb24207    ...B    SUBSCS   r2,r2,r7,LSL #16
        0x000010e4:    eb614117    a..A    SBC      r1,r1,r7,LSR #16
        0x000010e8:    eb15151c    ....    ADDS     r5,r5,r12,LSR #4
        0x000010ec:    ea4f3181    O..1    LSL      r1,r1,#14
        0x000010f0:    ea414192    A..A    ORR      r1,r1,r2,LSR #18
        0x000010f4:    ea4f3282    O..2    LSL      r2,r2,#14
        0x000010f8:    ea424290    B..B    ORR      r2,r2,r0,LSR #18
        0x000010fc:    ea4f3080    O..0    LSL      r0,r0,#14
        0x00001100:    ea4f760c    O..v    LSL      r6,r12,#28
        0x00001104:    f1440400    D...    ADC      r4,r4,#0
        0x00001108:    ea484303    H..C    ORR      r3,r8,r3,LSL #16
        0x0000110c:    ea4e480b    N..H    ORR      r8,lr,r11,LSL #16
        0x00001110:    f04f0e00    O...    MOV      lr,#0
        0x00001114:    ebb20c08    ....    SUBS     r12,r2,r8
        0x00001118:    eb710703    q...    SBCS     r7,r1,r3
        0x0000111c:    bf24        $.      ITT      CS
        0x0000111e:    4662        bF      MOVCS    r2,r12
        0x00001120:    4639        9F      MOVCS    r1,r7
        0x00001122:    eb4e0e0e    N...    ADC      lr,lr,lr
        0x00001126:    f04f0b00    O...    MOV      r11,#0
        0x0000112a:    1800        ..      ADDS     r0,r0,r0
        0x0000112c:    4152        RA      ADCS     r2,r2,r2
        0x0000112e:    4149        IA      ADCS     r1,r1,r1
        0x00001130:    eb4b0b0b    K...    ADC      r11,r11,r11
        0x00001134:    ebb20c08    ....    SUBS     r12,r2,r8
        0x00001138:    eb710703    q...    SBCS     r7,r1,r3
        0x0000113c:    f17b0b00    {...    SBCS     r11,r11,#0
        0x00001140:    bf24        $.      ITT      CS
        0x00001142:    4662        bF      MOVCS    r2,r12
        0x00001144:    4639        9F      MOVCS    r1,r7
        0x00001146:    eb4e0e0e    N...    ADC      lr,lr,lr
        0x0000114a:    f04f0b00    O...    MOV      r11,#0
        0x0000114e:    1800        ..      ADDS     r0,r0,r0
        0x00001150:    4152        RA      ADCS     r2,r2,r2
        0x00001152:    4149        IA      ADCS     r1,r1,r1
        0x00001154:    eb4b0b0b    K...    ADC      r11,r11,r11
        0x00001158:    ebb20c08    ....    SUBS     r12,r2,r8
        0x0000115c:    eb710703    q...    SBCS     r7,r1,r3
        0x00001160:    f17b0b00    {...    SBCS     r11,r11,#0
        0x00001164:    bf24        $.      ITT      CS
        0x00001166:    4662        bF      MOVCS    r2,r12
        0x00001168:    4639        9F      MOVCS    r1,r7
        0x0000116a:    eb4e0e0e    N...    ADC      lr,lr,lr
        0x0000116e:    ea510702    Q...    ORRS     r7,r1,r2
        0x00001172:    bf18        ..      IT       NE
        0x00001174:    f0460601    F...    ORRNE    r6,r6,#1
        0x00001178:    eb16760e    ...v    ADDS     r6,r6,lr,LSL #28
        0x0000117c:    f1550200    U...    ADCS     r2,r5,#0
        0x00001180:    f1540100    T...    ADCS     r1,r4,#0
        0x00001184:    d503        ..      BPL      0x118e ; __btod_div_common + 674
        0x00001186:    e8bd0189    ....    POP      {r0,r3,r7,r8}
        0x0000118a:    e8bd8800    ....    POP      {r11,pc}
        0x0000118e:    e8bd0189    ....    POP      {r0,r3,r7,r8}
        0x00001192:    e8bd4800    ...H    POP      {r11,lr}
        0x00001196:    19b6        ..      ADDS     r6,r6,r6
        0x00001198:    4152        RA      ADCS     r2,r2,r2
        0x0000119a:    eb410101    A...    ADC      r1,r1,r1
        0x0000119e:    f1a30301    ....    SUB      r3,r3,#1
        0x000011a2:    4770        pG      BX       lr
    $d
        0x000011a4:    7e7f8080    ...~    DCD    2122285184
        0x000011a8:    7a7b7c7d    }|{z    DCD    2054913149
        0x000011ac:    76777879    yxwv    DCD    1987541113
        0x000011b0:    73747576    vuts    DCD    1937012086
        0x000011b4:    70717172    rqqp    DCD    1886482802
        0x000011b8:    6d6e6e6f    onnm    DCD    1835953775
        0x000011bc:    6a6b6c6c    llkj    DCD    1785425004
        0x000011c0:    6868696a    jihh    DCD    1751673194
        0x000011c4:    65666667    gffe    DCD    1701209703
        0x000011c8:    63636464    ddcc    DCD    1667458148
        0x000011cc:    60616162    baa`    DCD    1616994658
        0x000011d0:    5e5f5f60    `__^    DCD    1583308640
        0x000011d4:    5c5d5d5e    ^]]\    DCD    1549622622
        0x000011d8:    5a5b5b5c    \[[Z    DCD    1515936604
        0x000011dc:    5859595a    ZYYX    DCD    1482250586
        0x000011e0:    56575758    XWWV    DCD    1448564568
        0x000011e4:    55555556    VUUU    DCD    1431655766
        0x000011e8:    53535454    TTSS    DCD    1397970004
        0x000011ec:    51525252    RRRQ    DCD    1364349522
        0x000011f0:    50505051    QPPP    DCD    1347440721
        0x000011f4:    4e4f4f4f    OOON    DCD    1313820495
        0x000011f8:    4d4d4d4e    NMMM    DCD    1296911694
        0x000011fc:    4b4c4c4c    LLLK    DCD    1263291468
        0x00001200:    4a4a4b4b    KKJJ    DCD    1246382923
        0x00001204:    4949494a    JIII    DCD    1229539658
        0x00001208:    47484848    HHHG    DCD    1195919432
        0x0000120c:    46474747    GGGF    DCD    1179076423
        0x00001210:    45454646    FFEE    DCD    1162167878
        0x00001214:    44444445    EDDD    DCD    1145324613
        0x00001218:    43434344    DCCC    DCD    1128481604
        0x0000121c:    42424243    CBBB    DCD    1111638595
        0x00001220:    41414142    BAAA    DCD    1094795586
    $t
    CL$$btod_e2e
    _e2e
        0x00001224:    2b00        .+      CMP      r3,#0
        0x00001226:    469c        .F      MOV      r12,r3
        0x00001228:    d430        0.      BMI      0x128c ; _e2e + 104
        0x0000122a:    0077        w.      LSLS     r7,r6,#1
        0x0000122c:    d02b        +.      BEQ      0x1286 ; _e2e + 98
        0x0000122e:    b51c        ..      PUSH     {r2-r4,lr}
        0x00001230:    ea4f0737    O.7.    RRX      r7,r7
        0x00001234:    b403        ..      PUSH     {r0,r1}
        0x00001236:    f04f0010    O...    MOV      r0,#0x10
        0x0000123a:    f04f0110    O...    MOV      r1,#0x10
        0x0000123e:    f1ba0f00    ....    CMP      r10,#0
        0x00001242:    d006        ..      BEQ      0x1252 ; _e2e + 46
        0x00001244:    f1bc0f00    ....    CMP      r12,#0
        0x00001248:    bfdc        ..      ITT      LE
        0x0000124a:    f0400008    @...    ORRLE    r0,r0,#8
        0x0000124e:    f0400108    @...    ORRLE    r1,r0,#8
        0x00001252:    f04f0000    O...    MOV      r0,#0
        0x00001256:    bc0f        ..      POP      {r0-r3}
        0x00001258:    e8bd4010    ...@    POP      {r4,lr}
        0x0000125c:    f10b0b01    ....    ADD      r11,r11,#1
        0x00001260:    f1bb0f01    ....    CMP      r11,#1
        0x00001264:    bf08        ..      IT       EQ
        0x00001266:    ea5f0717    _...    LSRSEQ   r7,r7,#32
        0x0000126a:    bf22        ".      ITTT     CS
        0x0000126c:    f1120201    ....    ADDSCS   r2,r2,#1
        0x00001270:    f1110101    ....    ADDSCS   r1,r1,#1
        0x00001274:    f04f4100    O..A    MOVCS    r1,#0x80000000
        0x00001278:    f1430300    C...    ADC      r3,r3,#0
        0x0000127c:    f0004000    ...@    AND      r0,r0,#0x80000000
        0x00001280:    ea430000    C...    ORR      r0,r3,r0
        0x00001284:    4770        pG      BX       lr
        0x00001286:    d3f9        ..      BCC      0x127c ; _e2e + 88
        0x00001288:    0857        W.      LSRS     r7,r2,#1
        0x0000128a:    e7d0        ..      B        0x122e ; _e2e + 10
        0x0000128c:    ea464606    F..F    ORR      r6,r6,r6,LSL #16
        0x00001290:    f1130f40    ..@.    CMN      r3,#0x40
        0x00001294:    ea4f4616    O..F    LSR      r6,r6,#16
        0x00001298:    dd1f        ..      BLE      0x12da ; _e2e + 182
        0x0000129a:    f1130f20    .. .    CMN      r3,#0x20
        0x0000129e:    bfdf        ..      ITTTT    LE
        0x000012a0:    4316        .C      ORRLE    r6,r6,r2
        0x000012a2:    460a        .F      MOVLE    r2,r1
        0x000012a4:    2100        .!      MOVLE    r1,#0
        0x000012a6:    3320         3      ADDLE    r3,r3,#0x20
        0x000012a8:    425b        [B      RSBS     r3,r3,#0
        0x000012aa:    d0be        ..      BEQ      0x122a ; _e2e + 6
        0x000012ac:    f1c30720    .. .    RSB      r7,r3,#0x20
        0x000012b0:    ea464606    F..F    ORR      r6,r6,r6,LSL #16
        0x000012b4:    fa02f707    ....    LSL      r7,r2,r7
        0x000012b8:    ea4f4616    O..F    LSR      r6,r6,#16
        0x000012bc:    ea460607    F...    ORR      r6,r6,r7
        0x000012c0:    f1c30720    .. .    RSB      r7,r3,#0x20
        0x000012c4:    fa22f203    "...    LSR      r2,r2,r3
        0x000012c8:    fa01f707    ....    LSL      r7,r1,r7
        0x000012cc:    fa21f103    !...    LSR      r1,r1,r3
        0x000012d0:    f04f0300    O...    MOV      r3,#0
        0x000012d4:    ea420207    B...    ORR      r2,r2,r7
        0x000012d8:    e7a7        ..      B        0x122a ; _e2e + 6
        0x000012da:    ea460602    F...    ORR      r6,r6,r2
        0x000012de:    ea464606    F..F    ORR      r6,r6,r6,LSL #16
        0x000012e2:    ea4f4616    O..F    LSR      r6,r6,#16
        0x000012e6:    ea460601    F...    ORR      r6,r6,r1
        0x000012ea:    bfbc        ..      ITT      LT
        0x000012ec:    ea464606    F..F    ORRLT    r6,r6,r6,LSL #16
        0x000012f0:    0c36        6.      LSRLT    r6,r6,#16
        0x000012f2:    f04f0300    O...    MOV      r3,#0
        0x000012f6:    f04f0200    O...    MOV      r2,#0
        0x000012fa:    f04f0100    O...    MOV      r1,#0
        0x000012fe:    e794        ..      B        0x122a ; _e2e + 6
    CL$$btod_ediv
    _btod_ediv
        0x00001300:    e92d4c80    -..L    PUSH     {r7,r10,r11,lr}
        0x00001304:    469a        .F      MOV      r10,r3
        0x00001306:    4693        .F      MOV      r11,r2
        0x00001308:    b470        p.      PUSH     {r4-r6}
        0x0000130a:    e8910038    ..8.    LDM      r1,{r3-r5}
        0x0000130e:    c807        ..      LDM      r0,{r0-r2}
        0x00001310:    ea310c40    1.@.    BICS     r12,r1,r0,LSL #1
        0x00001314:    bf48        H.      IT       MI
        0x00001316:    ea340c43    4.C.    BICSMI   r12,r4,r3,LSL #1
        0x0000131a:    d503        ..      BPL      0x1324 ; _btod_ediv + 36
        0x0000131c:    f7fffde6    ....    BL       __btod_div_common ; 0xeec
        0x00001320:    f7ffff80    ....    BL       _e2e ; 0x1224
        0x00001324:    bcf0        ..      POP      {r4-r7}
        0x00001326:    e8bd8c00    ....    POP      {r10,r11,pc}
    CL$$btod_emul
    _btod_emul
        0x0000132a:    e92d4c80    -..L    PUSH     {r7,r10,r11,lr}
        0x0000132e:    469a        .F      MOV      r10,r3
        0x00001330:    4693        .F      MOV      r11,r2
        0x00001332:    b470        p.      PUSH     {r4-r6}
        0x00001334:    e8910038    ..8.    LDM      r1,{r3-r5}
        0x00001338:    c807        ..      LDM      r0,{r0-r2}
        0x0000133a:    f0104f80    ...O    TST      r0,#0x40000000
        0x0000133e:    bf08        ..      IT       EQ
        0x00001340:    f0134f80    ...O    TSTEQ    r3,#0x40000000
        0x00001344:    d103        ..      BNE      0x134e ; _btod_emul + 36
        0x00001346:    f000f805    ....    BL       __btod_mult_common ; 0x1354
        0x0000134a:    f7ffff6b    ..k.    BL       _e2e ; 0x1224
        0x0000134e:    bcf0        ..      POP      {r4-r7}
        0x00001350:    e8bd8c00    ....    POP      {r10,r11,pc}
    CL$$btod_mult_common
    __btod_mult_common
        0x00001354:    f020477f     ..G    BIC      r7,r0,#0xff000000
        0x00001358:    ea800003    ....    EOR      r0,r0,r3
        0x0000135c:    f0234c7f    #..L    BIC      r12,r3,#0xff000000
        0x00001360:    eb07030c    ....    ADD      r3,r7,r12
        0x00001364:    f5a3537c    ..|S    SUB      r3,r3,#0x3f00
        0x00001368:    f0004000    ...@    AND      r0,r0,#0x80000000
        0x0000136c:    f1a303fe    ....    SUB      r3,r3,#0xfe
        0x00001370:    f0920f00    ....    TEQ      r2,#0
        0x00001374:    f00080b3    ....    BEQ.W    0x14de ; __btod_mult_common + 394
        0x00001378:    f0950f00    ....    TEQ      r5,#0
        0x0000137c:    f0008077    ..w.    BEQ.W    0x146e ; __btod_mult_common + 282
        0x00001380:    e92d4901    -..I    PUSH     {r0,r8,r11,lr}
        0x00001384:    ea4f4011    O..@    LSR      r0,r1,#16
        0x00001388:    ea4f4614    O..F    LSR      r6,r4,#16
        0x0000138c:    ea214800    !..H    BIC      r8,r1,r0,LSL #16
        0x00001390:    fb00fc06    ....    MUL      r12,r0,r6
        0x00001394:    ea244706    $..G    BIC      r7,r4,r6,LSL #16
        0x00001398:    fb08f606    ....    MUL      r6,r8,r6
        0x0000139c:    fb07f808    ....    MUL      r8,r7,r8
        0x000013a0:    fb00f707    ....    MUL      r7,r0,r7
        0x000013a4:    eb184806    ...H    ADDS     r8,r8,r6,LSL #16
        0x000013a8:    eb4c4c16    L..L    ADC      r12,r12,r6,LSR #16
        0x000013ac:    ea4f4b12    O..K    LSR      r11,r2,#16
        0x000013b0:    eb184807    ...H    ADDS     r8,r8,r7,LSL #16
        0x000013b4:    ea4f4615    O..F    LSR      r6,r5,#16
        0x000013b8:    eb4c4017    L..@    ADC      r0,r12,r7,LSR #16
        0x000013bc:    ea224e0b    "..N    BIC      lr,r2,r11,LSL #16
        0x000013c0:    fb0bfc06    ....    MUL      r12,r11,r6
        0x000013c4:    ea254706    %..G    BIC      r7,r5,r6,LSL #16
        0x000013c8:    fb0ef606    ....    MUL      r6,lr,r6
        0x000013cc:    fb07fe0e    ....    MUL      lr,r7,lr
        0x000013d0:    fb0bf707    ....    MUL      r7,r11,r7
        0x000013d4:    eb1e4e06    ...N    ADDS     lr,lr,r6,LSL #16
        0x000013d8:    eb4c4c16    L..L    ADC      r12,r12,r6,LSR #16
        0x000013dc:    f04f0600    O...    MOV      r6,#0
        0x000013e0:    eb1e4e07    ...N    ADDS     lr,lr,r7,LSL #16
        0x000013e4:    eb4c4b17    L..K    ADC      r11,r12,r7,LSR #16
        0x000013e8:    eb18080b    ....    ADDS     r8,r8,r11
        0x000013ec:    f1400000    @...    ADC      r0,r0,#0
        0x000013f0:    eb180b0e    ....    ADDS     r11,r8,lr
        0x000013f4:    eb580800    X...    ADCS     r8,r8,r0
        0x000013f8:    f1400000    @...    ADC      r0,r0,#0
        0x000013fc:    1a8f        ..      SUBS     r7,r1,r2
        0x000013fe:    f04f0100    O...    MOV      r1,#0
        0x00001402:    bf3c        <.      ITT      CC
        0x00001404:    43c9        .C      MVNCC    r1,r1
        0x00001406:    1b66        f.      SUBCC    r6,r4,r5
        0x00001408:    bf14        ..      ITE      NE
        0x0000140a:    ebb50c04    ....    SUBSNE   r12,r5,r4
        0x0000140e:    2100        .!      MOVEQ    r1,#0
        0x00001410:    bf3c        <.      ITT      CC
        0x00001412:    43c9        .C      MVNCC    r1,r1
        0x00001414:    1bf6        ..      SUBCC    r6,r6,r7
        0x00001416:    ea4f4417    O..D    LSR      r4,r7,#16
        0x0000141a:    ea4e0e8e    N...    ORR      lr,lr,lr,LSL #2
        0x0000141e:    ea274504    '..E    BIC      r5,r7,r4,LSL #16
        0x00001422:    ea4f471c    O..G    LSR      r7,r12,#16
        0x00001426:    fb046207    ...b    MLA      r2,r4,r7,r6
        0x0000142a:    ea2c4c07    ,..L    BIC      r12,r12,r7,LSL #16
        0x0000142e:    fb05f707    ....    MUL      r7,r5,r7
        0x00001432:    fb0cf605    ....    MUL      r6,r12,r5
        0x00001436:    fb04fc0c    ....    MUL      r12,r4,r12
        0x0000143a:    eb164607    ...F    ADDS     r6,r6,r7,LSL #16
        0x0000143e:    eb424217    B..B    ADC      r2,r2,r7,LSR #16
        0x00001442:    eb16460c    ...F    ADDS     r6,r6,r12,LSL #16
        0x00001446:    eb42421c    B..B    ADC      r2,r2,r12,LSR #16
        0x0000144a:    eb1b0606    ....    ADDS     r6,r11,r6
        0x0000144e:    eb580202    X...    ADCS     r2,r8,r2
        0x00001452:    4141        AA      ADCS     r1,r1,r0
        0x00001454:    ea46069e    F...    ORR      r6,r6,lr,LSR #2
        0x00001458:    d501        ..      BPL      0x145e ; __btod_mult_common + 266
        0x0000145a:    e8bd8901    ....    POP      {r0,r8,r11,pc}
        0x0000145e:    19b6        ..      ADDS     r6,r6,r6
        0x00001460:    4152        RA      ADCS     r2,r2,r2
        0x00001462:    eb410101    A...    ADC      r1,r1,r1
        0x00001466:    f1a30301    ....    SUB      r3,r3,#1
        0x0000146a:    e8bd8901    ....    POP      {r0,r8,r11,pc}
        0x0000146e:    ea4f4514    O..E    LSR      r5,r4,#16
        0x00001472:    ea4f4711    O..G    LSR      r7,r1,#16
        0x00001476:    ea244605    $..F    BIC      r6,r4,r5,LSL #16
        0x0000147a:    ea214c07    !..L    BIC      r12,r1,r7,LSL #16
        0x0000147e:    fb05f407    ....    MUL      r4,r5,r7
        0x00001482:    fb06f707    ....    MUL      r7,r6,r7
        0x00001486:    fb0cf106    ....    MUL      r1,r12,r6
        0x0000148a:    fb05fc0c    ....    MUL      r12,r5,r12
        0x0000148e:    eb114107    ...A    ADDS     r1,r1,r7,LSL #16
        0x00001492:    eb444417    D..D    ADC      r4,r4,r7,LSR #16
        0x00001496:    ea4f4712    O..G    LSR      r7,r2,#16
        0x0000149a:    eb11410c    ...A    ADDS     r1,r1,r12,LSL #16
        0x0000149e:    eb44441c    D..D    ADC      r4,r4,r12,LSR #16
        0x000014a2:    ea224c07    "..L    BIC      r12,r2,r7,LSL #16
        0x000014a6:    fb05f207    ....    MUL      r2,r5,r7
        0x000014aa:    fb06f707    ....    MUL      r7,r6,r7
        0x000014ae:    fb0cf606    ....    MUL      r6,r12,r6
        0x000014b2:    fb05fc0c    ....    MUL      r12,r5,r12
        0x000014b6:    eb164607    ...F    ADDS     r6,r6,r7,LSL #16
        0x000014ba:    eb424217    B..B    ADC      r2,r2,r7,LSR #16
        0x000014be:    eb16460c    ...F    ADDS     r6,r6,r12,LSL #16
        0x000014c2:    eb42451c    B..E    ADC      r5,r2,r12,LSR #16
        0x000014c6:    186a        j.      ADDS     r2,r5,r1
        0x000014c8:    f1540100    T...    ADCS     r1,r4,#0
        0x000014cc:    bf48        H.      IT       MI
        0x000014ce:    4770        pG      BXMI     lr
        0x000014d0:    19b6        ..      ADDS     r6,r6,r6
        0x000014d2:    4152        RA      ADCS     r2,r2,r2
        0x000014d4:    eb410101    A...    ADC      r1,r1,r1
        0x000014d8:    f1a30301    ....    SUB      r3,r3,#1
        0x000014dc:    4770        pG      BX       lr
        0x000014de:    f0950f00    ....    TEQ      r5,#0
        0x000014e2:    d037        7.      BEQ      0x1554 ; __btod_mult_common + 512
        0x000014e4:    ea4f4211    O..B    LSR      r2,r1,#16
        0x000014e8:    ea4f4714    O..G    LSR      r7,r4,#16
        0x000014ec:    ea214602    !..F    BIC      r6,r1,r2,LSL #16
        0x000014f0:    ea244c07    $..L    BIC      r12,r4,r7,LSL #16
        0x000014f4:    fb02f107    ....    MUL      r1,r2,r7
        0x000014f8:    fb06f707    ....    MUL      r7,r6,r7
        0x000014fc:    fb0cf406    ....    MUL      r4,r12,r6
        0x00001500:    fb02fc0c    ....    MUL      r12,r2,r12
        0x00001504:    eb144407    ...D    ADDS     r4,r4,r7,LSL #16
        0x00001508:    eb414117    A..A    ADC      r1,r1,r7,LSR #16
        0x0000150c:    ea4f4715    O..G    LSR      r7,r5,#16
        0x00001510:    eb14440c    ...D    ADDS     r4,r4,r12,LSL #16
        0x00001514:    eb41411c    A..A    ADC      r1,r1,r12,LSR #16
        0x00001518:    ea254c07    %..L    BIC      r12,r5,r7,LSL #16
        0x0000151c:    fb02f507    ....    MUL      r5,r2,r7
        0x00001520:    fb06f707    ....    MUL      r7,r6,r7
        0x00001524:    fb0cf606    ....    MUL      r6,r12,r6
        0x00001528:    fb02fc0c    ....    MUL      r12,r2,r12
        0x0000152c:    eb164607    ...F    ADDS     r6,r6,r7,LSL #16
        0x00001530:    eb454517    E..E    ADC      r5,r5,r7,LSR #16
        0x00001534:    eb16460c    ...F    ADDS     r6,r6,r12,LSL #16
        0x00001538:    eb45421c    E..B    ADC      r2,r5,r12,LSR #16
        0x0000153c:    1912        ..      ADDS     r2,r2,r4
        0x0000153e:    f1510100    Q...    ADCS     r1,r1,#0
        0x00001542:    bf48        H.      IT       MI
        0x00001544:    4770        pG      BXMI     lr
        0x00001546:    19b6        ..      ADDS     r6,r6,r6
        0x00001548:    4152        RA      ADCS     r2,r2,r2
        0x0000154a:    eb410101    A...    ADC      r1,r1,r1
        0x0000154e:    f1a30301    ....    SUB      r3,r3,#1
        0x00001552:    4770        pG      BX       lr
        0x00001554:    ea4f4514    O..E    LSR      r5,r4,#16
        0x00001558:    ea4f4711    O..G    LSR      r7,r1,#16
        0x0000155c:    ea244605    $..F    BIC      r6,r4,r5,LSL #16
        0x00001560:    ea214c07    !..L    BIC      r12,r1,r7,LSL #16
        0x00001564:    fb05f107    ....    MUL      r1,r5,r7
        0x00001568:    fb06f707    ....    MUL      r7,r6,r7
        0x0000156c:    fb0cf206    ....    MUL      r2,r12,r6
        0x00001570:    f04f0600    O...    MOV      r6,#0
        0x00001574:    fb05fc0c    ....    MUL      r12,r5,r12
        0x00001578:    eb124207    ...B    ADDS     r2,r2,r7,LSL #16
        0x0000157c:    eb414117    A..A    ADC      r1,r1,r7,LSR #16
        0x00001580:    eb12420c    ...B    ADDS     r2,r2,r12,LSL #16
        0x00001584:    eb51411c    Q..A    ADCS     r1,r1,r12,LSR #16
        0x00001588:    bf48        H.      IT       MI
        0x0000158a:    4770        pG      BXMI     lr
        0x0000158c:    1892        ..      ADDS     r2,r2,r2
        0x0000158e:    eb410101    A...    ADC      r1,r1,r1
        0x00001592:    f1a30301    ....    SUB      r3,r3,#1
        0x00001596:    4770        pG      BX       lr
    i.DisplayCo2Level
    DisplayCo2Level
        0x00001598:    b510        ..      PUSH     {r4,lr}
        0x0000159a:    4604        .F      MOV      r4,r0
        0x0000159c:    b124        $.      CBZ      r4,0x15a8 ; DisplayCo2Level + 16
        0x0000159e:    2c01        .,      CMP      r4,#1
        0x000015a0:    d006        ..      BEQ      0x15b0 ; DisplayCo2Level + 24
        0x000015a2:    2c02        .,      CMP      r4,#2
        0x000015a4:    d10c        ..      BNE      0x15c0 ; DisplayCo2Level + 40
        0x000015a6:    e007        ..      B        0x15b8 ; DisplayCo2Level + 32
        0x000015a8:    a008        ..      ADR      r0,{pc}+0x24 ; 0x15cc
        0x000015aa:    f7feff83    ....    BL       __2printf ; 0x4b4
        0x000015ae:    e00b        ..      B        0x15c8 ; DisplayCo2Level + 48
        0x000015b0:    a010        ..      ADR      r0,{pc}+0x44 ; 0x15f4
        0x000015b2:    f7feff7f    ....    BL       __2printf ; 0x4b4
        0x000015b6:    e007        ..      B        0x15c8 ; DisplayCo2Level + 48
        0x000015b8:    a017        ..      ADR      r0,{pc}+0x60 ; 0x1618
        0x000015ba:    f7feff7b    ..{.    BL       __2printf ; 0x4b4
        0x000015be:    e003        ..      B        0x15c8 ; DisplayCo2Level + 48
        0x000015c0:    a01e        ..      ADR      r0,{pc}+0x7c ; 0x163c
        0x000015c2:    f7feff77    ..w.    BL       __2printf ; 0x4b4
        0x000015c6:    bf00        ..      NOP      
        0x000015c8:    bf00        ..      NOP      
        0x000015ca:    bd10        ..      POP      {r4,pc}
    $d
        0x000015cc:    20656854    The     DCD    543516756
        0x000015d0:    20726961    air     DCD    544368993
        0x000015d4:    6c617571    qual    DCD    1818326385
        0x000015d8:    20797469    ity     DCD    544830569
        0x000015dc:    6320666f    of c    DCD    1663067759
        0x000015e0:    6920326f    o2 i    DCD    1763717743
        0x000015e4:    78652073    s ex    DCD    2019893363
        0x000015e8:    6c6c6563    cell    DCD    1819043171
        0x000015ec:    2e746e65    ent.    DCD    779382373
        0x000015f0:    0000000a    ....    DCD    10
        0x000015f4:    20656854    The     DCD    543516756
        0x000015f8:    20726961    air     DCD    544368993
        0x000015fc:    6c617571    qual    DCD    1818326385
        0x00001600:    20797469    ity     DCD    544830569
        0x00001604:    6320666f    of c    DCD    1663067759
        0x00001608:    6920326f    o2 i    DCD    1763717743
        0x0000160c:    6f672073    s go    DCD    1869029491
        0x00001610:    0a2e646f    od..    DCD    170812527
        0x00001614:    00000000    ....    DCD    0
        0x00001618:    20656854    The     DCD    543516756
        0x0000161c:    20726961    air     DCD    544368993
        0x00001620:    6c617571    qual    DCD    1818326385
        0x00001624:    20797469    ity     DCD    544830569
        0x00001628:    6320666f    of c    DCD    1663067759
        0x0000162c:    6920326f    o2 i    DCD    1763717743
        0x00001630:    76612073    s av    DCD    1986076787
        0x00001634:    67617265    erag    DCD    1734439525
        0x00001638:    000a2e65    e...    DCD    667237
        0x0000163c:    20656854    The     DCD    543516756
        0x00001640:    20726961    air     DCD    544368993
        0x00001644:    6c617571    qual    DCD    1818326385
        0x00001648:    20797469    ity     DCD    544830569
        0x0000164c:    6320666f    of c    DCD    1663067759
        0x00001650:    6920326f    o2 i    DCD    1763717743
        0x00001654:    6f702073    s po    DCD    1869619315
        0x00001658:    0a2e726f    or..    DCD    170816111
        0x0000165c:    00000000    ....    DCD    0
    $t
    i.DisplayPm25Level
    DisplayPm25Level
        0x00001660:    b510        ..      PUSH     {r4,lr}
        0x00001662:    4604        .F      MOV      r4,r0
        0x00001664:    b124        $.      CBZ      r4,0x1670 ; DisplayPm25Level + 16
        0x00001666:    2c01        .,      CMP      r4,#1
        0x00001668:    d006        ..      BEQ      0x1678 ; DisplayPm25Level + 24
        0x0000166a:    2c02        .,      CMP      r4,#2
        0x0000166c:    d10c        ..      BNE      0x1688 ; DisplayPm25Level + 40
        0x0000166e:    e007        ..      B        0x1680 ; DisplayPm25Level + 32
        0x00001670:    a008        ..      ADR      r0,{pc}+0x24 ; 0x1694
        0x00001672:    f7feff1f    ....    BL       __2printf ; 0x4b4
        0x00001676:    e00b        ..      B        0x1690 ; DisplayPm25Level + 48
        0x00001678:    a010        ..      ADR      r0,{pc}+0x44 ; 0x16bc
        0x0000167a:    f7feff1b    ....    BL       __2printf ; 0x4b4
        0x0000167e:    e007        ..      B        0x1690 ; DisplayPm25Level + 48
        0x00001680:    a017        ..      ADR      r0,{pc}+0x60 ; 0x16e0
        0x00001682:    f7feff17    ....    BL       __2printf ; 0x4b4
        0x00001686:    e003        ..      B        0x1690 ; DisplayPm25Level + 48
        0x00001688:    a01f        ..      ADR      r0,{pc}+0x80 ; 0x1708
        0x0000168a:    f7feff13    ....    BL       __2printf ; 0x4b4
        0x0000168e:    bf00        ..      NOP      
        0x00001690:    bf00        ..      NOP      
        0x00001692:    bd10        ..      POP      {r4,pc}
    $d
        0x00001694:    20656854    The     DCD    543516756
        0x00001698:    20726961    air     DCD    544368993
        0x0000169c:    6c617571    qual    DCD    1818326385
        0x000016a0:    20797469    ity     DCD    544830569
        0x000016a4:    7020666f    of p    DCD    1881171567
        0x000016a8:    352e326d    m2.5    DCD    892220013
        0x000016ac:    20736920     is     DCD    544434464
        0x000016b0:    65637865    exce    DCD    1701017701
        0x000016b4:    6e656c6c    llen    DCD    1852140652
        0x000016b8:    000a2e74    t...    DCD    667252
        0x000016bc:    20656854    The     DCD    543516756
        0x000016c0:    20726961    air     DCD    544368993
        0x000016c4:    6c617571    qual    DCD    1818326385
        0x000016c8:    20797469    ity     DCD    544830569
        0x000016cc:    7020666f    of p    DCD    1881171567
        0x000016d0:    352e326d    m2.5    DCD    892220013
        0x000016d4:    20736920     is     DCD    544434464
        0x000016d8:    646f6f67    good    DCD    1685024615
        0x000016dc:    00000a2e    ....    DCD    2606
        0x000016e0:    20656854    The     DCD    543516756
        0x000016e4:    20726961    air     DCD    544368993
        0x000016e8:    6c617571    qual    DCD    1818326385
        0x000016ec:    20797469    ity     DCD    544830569
        0x000016f0:    7020666f    of p    DCD    1881171567
        0x000016f4:    352e326d    m2.5    DCD    892220013
        0x000016f8:    20736920     is     DCD    544434464
        0x000016fc:    72657661    aver    DCD    1919252065
        0x00001700:    2e656761    age.    DCD    778397537
        0x00001704:    0000000a    ....    DCD    10
        0x00001708:    20656854    The     DCD    543516756
        0x0000170c:    20726961    air     DCD    544368993
        0x00001710:    6c617571    qual    DCD    1818326385
        0x00001714:    20797469    ity     DCD    544830569
        0x00001718:    7020666f    of p    DCD    1881171567
        0x0000171c:    352e326d    m2.5    DCD    892220013
        0x00001720:    20736920     is     DCD    544434464
        0x00001724:    726f6f70    poor    DCD    1919905648
        0x00001728:    00000a2e    ....    DCD    2606
    $t
    i.GetCelTem
    GetCelTem
        0x0000172c:    b570        p.      PUSH     {r4-r6,lr}
        0x0000172e:    4604        .F      MOV      r4,r0
        0x00001730:    4620         F      MOV      r0,r4
        0x00001732:    f000f83f    ..?.    BL       GetRawData ; 0x17b4
        0x00001736:    4605        .F      MOV      r5,r0
        0x00001738:    4809        .H      LDR      r0,[pc,#36] ; [0x1760] = 0x2000000c
        0x0000173a:    6801        .h      LDR      r1,[r0,#0]
        0x0000173c:    4628        (F      MOV      r0,r5
        0x0000173e:    f000fa01    ....    BL       __aeabi_fmul ; 0x1b44
        0x00001742:    4605        .F      MOV      r5,r0
        0x00001744:    4907        .I      LDR      r1,[pc,#28] ; [0x1764] = 0x40a00000
        0x00001746:    4628        (F      MOV      r0,r5
        0x00001748:    f000f9c8    ....    BL       __aeabi_cfcmple ; 0x1adc
        0x0000174c:    d200        ..      BCS      0x1750 ; GetCelTem + 36
        0x0000174e:    4d05        .M      LDR      r5,[pc,#20] ; [0x1764] = 0x40a00000
        0x00001750:    4905        .I      LDR      r1,[pc,#20] ; [0x1768] = 0x425c0000
        0x00001752:    4628        (F      MOV      r0,r5
        0x00001754:    f000fac2    ....    BL       __aeabi_cfrcmple ; 0x1cdc
        0x00001758:    d200        ..      BCS      0x175c ; GetCelTem + 48
        0x0000175a:    4d03        .M      LDR      r5,[pc,#12] ; [0x1768] = 0x425c0000
        0x0000175c:    4628        (F      MOV      r0,r5
        0x0000175e:    bd70        p.      POP      {r4-r6,pc}
    $d
        0x00001760:    2000000c    ...     DCD    536870924
        0x00001764:    40a00000    ...@    DCD    1084227584
        0x00001768:    425c0000    ..\B    DCD    1113325568
    $t
    i.GetCo2Level
    GetCo2Level
        0x0000176c:    b570        p.      PUSH     {r4-r6,lr}
        0x0000176e:    f000f81d    ....    BL       GetRawData ; 0x17ac
        0x00001772:    4604        .F      MOV      r4,r0
        0x00001774:    2064        d       MOVS     r0,#0x64
        0x00001776:    fb94f5f0    ....    SDIV     r5,r4,r0
        0x0000177a:    b2e8        ..      UXTB     r0,r5
        0x0000177c:    bd70        p.      POP      {r4-r6,pc}
    i.GetPm25Level
    GetPm25Level
        0x0000177e:    b570        p.      PUSH     {r4-r6,lr}
        0x00001780:    f000f836    ..6.    BL       GetRawData ; 0x17f0
        0x00001784:    4604        .F      MOV      r4,r0
        0x00001786:    2c0a        .,      CMP      r4,#0xa
        0x00001788:    da01        ..      BGE      0x178e ; GetPm25Level + 16
        0x0000178a:    2500        .%      MOVS     r5,#0
        0x0000178c:    e00c        ..      B        0x17a8 ; GetPm25Level + 42
        0x0000178e:    2c0a        .,      CMP      r4,#0xa
        0x00001790:    db03        ..      BLT      0x179a ; GetPm25Level + 28
        0x00001792:    2c23        #,      CMP      r4,#0x23
        0x00001794:    da01        ..      BGE      0x179a ; GetPm25Level + 28
        0x00001796:    2501        .%      MOVS     r5,#1
        0x00001798:    e006        ..      B        0x17a8 ; GetPm25Level + 42
        0x0000179a:    2c23        #,      CMP      r4,#0x23
        0x0000179c:    db03        ..      BLT      0x17a6 ; GetPm25Level + 40
        0x0000179e:    2c4b        K,      CMP      r4,#0x4b
        0x000017a0:    da01        ..      BGE      0x17a6 ; GetPm25Level + 40
        0x000017a2:    2502        .%      MOVS     r5,#2
        0x000017a4:    e000        ..      B        0x17a8 ; GetPm25Level + 42
        0x000017a6:    2503        .%      MOVS     r5,#3
        0x000017a8:    4628        (F      MOV      r0,r5
        0x000017aa:    bd70        p.      POP      {r4-r6,pc}
    i.GetRawData
    GetRawData
        0x000017ac:    f44f70fa    O..p    MOV      r0,#0x1f4
        0x000017b0:    4770        pG      BX       lr
        0x000017b2:    0000        ..      MOVS     r0,r0
    i.GetRawData
    GetRawData
        0x000017b4:    b570        p.      PUSH     {r4-r6,lr}
        0x000017b6:    4605        .F      MOV      r5,r0
        0x000017b8:    480b        .H      LDR      r0,[pc,#44] ; [0x17e8] = 0x20000010
        0x000017ba:    7800        .x      LDRB     r0,[r0,#0]
        0x000017bc:    1c40        @.      ADDS     r0,r0,#1
        0x000017be:    490a        .I      LDR      r1,[pc,#40] ; [0x17e8] = 0x20000010
        0x000017c0:    7008        .p      STRB     r0,[r1,#0]
        0x000017c2:    4608        .F      MOV      r0,r1
        0x000017c4:    7800        .x      LDRB     r0,[r0,#0]
        0x000017c6:    2105        .!      MOVS     r1,#5
        0x000017c8:    fb90f2f1    ....    SDIV     r2,r0,r1
        0x000017cc:    fb010012    ....    MLS      r0,r1,r2,r0
        0x000017d0:    4905        .I      LDR      r1,[pc,#20] ; [0x17e8] = 0x20000010
        0x000017d2:    7008        .p      STRB     r0,[r1,#0]
        0x000017d4:    4608        .F      MOV      r0,r1
        0x000017d6:    7800        .x      LDRB     r0,[r0,#0]
        0x000017d8:    f000f96c    ..l.    BL       __aeabi_ui2f ; 0x1ab4
        0x000017dc:    4604        .F      MOV      r4,r0
        0x000017de:    4903        .I      LDR      r1,[pc,#12] ; [0x17ec] = 0x41a00000
        0x000017e0:    f000f8fa    ....    BL       __aeabi_fadd ; 0x19d8
        0x000017e4:    bd70        p.      POP      {r4-r6,pc}
    $d
        0x000017e6:    0000        ..      DCW    0
        0x000017e8:    20000010    ...     DCD    536870928
        0x000017ec:    41a00000    ...A    DCD    1101004800
    $t
    i.GetRawData
    GetRawData
        0x000017f0:    2032        2       MOVS     r0,#0x32
        0x000017f2:    4770        pG      BX       lr
    i.GetTemCofHmi
    GetTemCofHmi
        0x000017f4:    4800        .H      LDR      r0,[pc,#0] ; [0x17f8] = 0x3f99999a
        0x000017f6:    4770        pG      BX       lr
    $d
        0x000017f8:    3f99999a    ...?    DCD    1067030938
    $t
    i.SetTemCof
    SetTemCof
        0x000017fc:    4901        .I      LDR      r1,[pc,#4] ; [0x1804] = 0x2000000c
        0x000017fe:    6008        .`      STR      r0,[r1,#0]
        0x00001800:    4770        pG      BX       lr
    $d
        0x00001802:    0000        ..      DCW    0
        0x00001804:    2000000c    ...     DCD    536870924
    $t
    i.SystemInit
    SystemInit
        0x00001808:    4803        .H      LDR      r0,[pc,#12] ; [0x1818] = 0
        0x0000180a:    4904        .I      LDR      r1,[pc,#16] ; [0x181c] = 0xe000ed08
        0x0000180c:    6008        .`      STR      r0,[r1,#0]
        0x0000180e:    4804        .H      LDR      r0,[pc,#16] ; [0x1820] = 0x17d7840
        0x00001810:    4904        .I      LDR      r1,[pc,#16] ; [0x1824] = 0x20000014
        0x00001812:    6008        .`      STR      r0,[r1,#0]
        0x00001814:    4770        pG      BX       lr
    $d
        0x00001816:    0000        ..      DCW    0
        0x00001818:    00000000    ....    DCD    0
        0x0000181c:    e000ed08    ....    DCD    3758157064
        0x00001820:    017d7840    @x}.    DCD    25000000
        0x00001824:    20000014    ...     DCD    536870932
    $t
    i.__ARM_fpclassify
    __ARM_fpclassify
        0x00001828:    0049        I.      LSLS     r1,r1,#1
        0x0000182a:    ea5020c1    P..     ORRS     r0,r0,r1,LSL #11
        0x0000182e:    bf18        ..      IT       NE
        0x00001830:    2004        .       MOVNE    r0,#4
        0x00001832:    0d4a        J.      LSRS     r2,r1,#21
        0x00001834:    bf18        ..      IT       NE
        0x00001836:    f0400001    @...    ORRNE    r0,r0,#1
        0x0000183a:    f24072ff    @..r    MOV      r2,#0x7ff
        0x0000183e:    ebb25f51    ..Q_    CMP      r2,r1,LSR #21
        0x00001842:    bf08        ..      IT       EQ
        0x00001844:    f0400002    @...    ORREQ    r0,r0,#2
        0x00001848:    2801        .(      CMP      r0,#1
        0x0000184a:    bf08        ..      IT       EQ
        0x0000184c:    2005        .       MOVEQ    r0,#5
        0x0000184e:    4770        pG      BX       lr
    i._is_digit
    _is_digit
        0x00001850:    3830        08      SUBS     r0,r0,#0x30
        0x00001852:    280a        .(      CMP      r0,#0xa
        0x00001854:    d201        ..      BCS      0x185a ; _is_digit + 10
        0x00001856:    2001        .       MOVS     r0,#1
        0x00001858:    4770        pG      BX       lr
        0x0000185a:    2000        .       MOVS     r0,#0
        0x0000185c:    4770        pG      BX       lr
    i._sys_exit
    _sys_exit
        0x0000185e:    bf00        ..      NOP      
        0x00001860:    e7fe        ..      B        0x1860 ; _sys_exit + 2
    i.ferror
    ferror
        0x00001862:    4601        .F      MOV      r1,r0
        0x00001864:    f04f30ff    O..0    MOV      r0,#0xffffffff
        0x00001868:    4770        pG      BX       lr
        0x0000186a:    0000        ..      MOVS     r0,r0
    i.fputc
    fputc
        0x0000186c:    b510        ..      PUSH     {r4,lr}
        0x0000186e:    4602        .F      MOV      r2,r0
        0x00001870:    4610        .F      MOV      r0,r2
        0x00001872:    4b0b        .K      LDR      r3,[pc,#44] ; [0x18a0] = 0xe0000e80
        0x00001874:    681b        .h      LDR      r3,[r3,#0]
        0x00001876:    f0030301    ....    AND      r3,r3,#1
        0x0000187a:    b17b        {.      CBZ      r3,0x189c ; fputc + 48
        0x0000187c:    4b08        .K      LDR      r3,[pc,#32] ; [0x18a0] = 0xe0000e80
        0x0000187e:    3b80        .;      SUBS     r3,r3,#0x80
        0x00001880:    681b        .h      LDR      r3,[r3,#0]
        0x00001882:    f0030301    ....    AND      r3,r3,#1
        0x00001886:    b14b        K.      CBZ      r3,0x189c ; fputc + 48
        0x00001888:    e000        ..      B        0x188c ; fputc + 32
        0x0000188a:    bf00        ..      NOP      
        0x0000188c:    f04f4360    O.`C    MOV      r3,#0xe0000000
        0x00001890:    681b        .h      LDR      r3,[r3,#0]
        0x00001892:    2b00        .+      CMP      r3,#0
        0x00001894:    d0f9        ..      BEQ      0x188a ; fputc + 30
        0x00001896:    f04f4460    O.`D    MOV      r4,#0xe0000000
        0x0000189a:    7020         p      STRB     r0,[r4,#0]
        0x0000189c:    bf00        ..      NOP      
        0x0000189e:    bd10        ..      POP      {r4,pc}
    $d
        0x000018a0:    e0000e80    ....    DCD    3758100096
    $t
    i.main
    main
        0x000018a4:    e92d43f0    -..C    PUSH     {r4-r9,lr}
        0x000018a8:    b091        ..      SUB      sp,sp,#0x44
        0x000018aa:    f7ffffa3    ....    BL       GetTemCofHmi ; 0x17f4
        0x000018ae:    4604        .F      MOV      r4,r0
        0x000018b0:    f7ffffa4    ....    BL       SetTemCof ; 0x17fc
        0x000018b4:    2400        .$      MOVS     r4,#0
        0x000018b6:    e021        !.      B        0x18fc ; main + 88
        0x000018b8:    2500        .%      MOVS     r5,#0
        0x000018ba:    e01b        ..      B        0x18f4 ; main + 80
        0x000018bc:    4620         F      MOV      r0,r4
        0x000018be:    f7ffff35    ..5.    BL       GetCelTem ; 0x172c
        0x000018c2:    eb040184    ....    ADD      r1,r4,r4,LSL #2
        0x000018c6:    aa02        ..      ADD      r2,sp,#8
        0x000018c8:    eb020181    ....    ADD      r1,r2,r1,LSL #2
        0x000018cc:    f8410025    A.%.    STR      r0,[r1,r5,LSL #2]
        0x000018d0:    eb040184    ....    ADD      r1,r4,r4,LSL #2
        0x000018d4:    eb020181    ....    ADD      r1,r2,r1,LSL #2
        0x000018d8:    f8510025    Q.%.    LDR      r0,[r1,r5,LSL #2]
        0x000018dc:    f000f850    ..P.    BL       __aeabi_f2d ; 0x1980
        0x000018e0:    4606        .F      MOV      r6,r0
        0x000018e2:    4632        2F      MOV      r2,r6
        0x000018e4:    460b        .F      MOV      r3,r1
        0x000018e6:    4621        !F      MOV      r1,r4
        0x000018e8:    a00d        ..      ADR      r0,{pc}+0x38 ; 0x1920
        0x000018ea:    9500        ..      STR      r5,[sp,#0]
        0x000018ec:    f7fefde2    ....    BL       __2printf ; 0x4b4
        0x000018f0:    1c68        h.      ADDS     r0,r5,#1
        0x000018f2:    b2c5        ..      UXTB     r5,r0
        0x000018f4:    2d05        .-      CMP      r5,#5
        0x000018f6:    dbe1        ..      BLT      0x18bc ; main + 24
        0x000018f8:    1c60        `.      ADDS     r0,r4,#1
        0x000018fa:    b2c4        ..      UXTB     r4,r0
        0x000018fc:    2c03        .,      CMP      r4,#3
        0x000018fe:    dbdb        ..      BLT      0x18b8 ; main + 20
        0x00001900:    f7ffff34    ..4.    BL       GetCo2Level ; 0x176c
        0x00001904:    4680        .F      MOV      r8,r0
        0x00001906:    4640        @F      MOV      r0,r8
        0x00001908:    f7fffe46    ..F.    BL       DisplayCo2Level ; 0x1598
        0x0000190c:    f7ffff37    ..7.    BL       GetPm25Level ; 0x177e
        0x00001910:    4681        .F      MOV      r9,r0
        0x00001912:    4648        HF      MOV      r0,r9
        0x00001914:    f7fffea4    ....    BL       DisplayPm25Level ; 0x1660
        0x00001918:    2000        .       MOVS     r0,#0
        0x0000191a:    b011        ..      ADD      sp,sp,#0x44
        0x0000191c:    e8bd83f0    ....    POP      {r4-r9,pc}
    $d
        0x00001920:    206d6554    Tem     DCD    544040276
        0x00001924:    7320666f    of s    DCD    1931503215
        0x00001928:    6f736e65    enso    DCD    1869835877
        0x0000192c:    20642572    r%d     DCD    543434098
        0x00001930:    2e25203d    = %.    DCD    774185021
        0x00001934:    62206631    1f b    DCD    1646290481
        0x00001938:    68742079    y th    DCD    1752440953
        0x0000193c:    64252065    e %d    DCD    1680154725
        0x00001940:    6d697420     tim    DCD    1835627552
        0x00001944:    000a2e65    e...    DCD    667237
    $t
    locale$$code
    _get_lc_numeric
        0x00001948:    b510        ..      PUSH     {r4,lr}
        0x0000194a:    2900        .)      CMP      r1,#0
        0x0000194c:    d00a        ..      BEQ      0x1964 ; _get_lc_numeric + 28
        0x0000194e:    7808        .x      LDRB     r0,[r1,#0]
        0x00001950:    2800        .(      CMP      r0,#0
        0x00001952:    d007        ..      BEQ      0x1964 ; _get_lc_numeric + 28
        0x00001954:    4805        .H      LDR      r0,[pc,#20] ; [0x196c] = 0x58e
        0x00001956:    4478        xD      ADD      r0,r0,pc
        0x00001958:    f7fffa16    ....    BL       strcmp ; 0xd88
        0x0000195c:    2800        .(      CMP      r0,#0
        0x0000195e:    d001        ..      BEQ      0x1964 ; _get_lc_numeric + 28
        0x00001960:    2000        .       MOVS     r0,#0
        0x00001962:    bd10        ..      POP      {r4,pc}
        0x00001964:    4802        .H      LDR      r0,[pc,#8] ; [0x1970] = 0x586
        0x00001966:    4478        xD      ADD      r0,r0,pc
        0x00001968:    bd10        ..      POP      {r4,pc}
    $d
        0x0000196a:    0000        ..      DCW    0
        0x0000196c:    0000058e    ....    DCD    1422
        0x00001970:    00000586    ....    DCD    1414
    $t
    x$fpl$dretinf
    __fpl_dretinf
        0x00001974:    0808        ..      LSRS     r0,r1,#32
        0x00001976:    f5a01100    ....    SUB      r1,r0,#0x200000
        0x0000197a:    ea4f0131    O.1.    RRX      r1,r1
        0x0000197e:    4770        pG      BX       lr
    x$fpl$f2d
    __aeabi_f2d
    _f2d
        0x00001980:    0043        C.      LSLS     r3,r0,#1
        0x00001982:    ea4f0cd3    O...    LSR      r12,r3,#3
        0x00001986:    ea4f0c3c    O.<.    RRX      r12,r12
        0x0000198a:    4043        C@      EORS     r3,r3,r0
        0x0000198c:    bf1f        ..      ITTTT    NE
        0x0000198e:    0740        @.      LSLNE    r0,r0,#29
        0x00001990:    f10c5160    ..`Q    ADDNE    r1,r12,#0x38000000
        0x00001994:    f0134ffe    ...O    TSTNE    r3,#0x7f000000
        0x00001998:    4770        pG      BXNE     lr
        0x0000199a:    f01c6f00    ...o    TST      r12,#0x8000000
        0x0000199e:    d103        ..      BNE      0x19a8 ; __aeabi_f2d + 40
        0x000019a0:    2000        .       MOVS     r0,#0
        0x000019a2:    f00c4100    ...A    AND      r1,r12,#0x80000000
        0x000019a6:    4770        pG      BX       lr
        0x000019a8:    f00c4300    ...C    AND      r3,r12,#0x80000000
        0x000019ac:    ea437050    C.Pp    ORR      r0,r3,r0,LSR #29
        0x000019b0:    b510        ..      PUSH     {r4,lr}
        0x000019b2:    ea4000cc    @...    ORR      r0,r0,r12,LSL #3
        0x000019b6:    f000f946    ..F.    BL       __fpl_fnaninf ; 0x1c46
        0x000019ba:    bf00        ..      NOP      
    $d
        0x000019bc:    92000000    ....    DCD    2449473536
    $t
        0x000019c0:    ea4f0100    O...    MOV.W    r1,r0
        0x000019c4:    f7ffbfd6    ....    B.W      __fpl_dretinf ; 0x1974
        0x000019c8:    f04f4100    O..A    MOV      r1,#0x80000000
        0x000019cc:    f04f0000    O...    MOV      r0,#0
        0x000019d0:    f5a12100    ...!    SUB      r1,r1,#0x80000
        0x000019d4:    4770        pG      BX       lr
        0x000019d6:    0000        ..      MOVS     r0,r0
    x$fpl$fadd
    __aeabi_fadd
    _fadd
        0x000019d8:    ea900f01    ....    TEQ      r0,r1
        0x000019dc:    bf48        H.      IT       MI
        0x000019de:    f0814100    ...A    EORMI    r1,r1,#0x80000000
        0x000019e2:    f10081b4    ....    BMI.W    _fsub1 ; 0x1d4e
    _fadd1
        0x000019e6:    1a42        B.      SUBS     r2,r0,r1
        0x000019e8:    bf3c        <.      ITT      CC
        0x000019ea:    1a80        ..      SUBCC    r0,r0,r2
        0x000019ec:    1889        ..      ADDCC    r1,r1,r2
        0x000019ee:    ea4f52d0    O..R    LSR      r2,r0,#23
        0x000019f2:    f04f4c7f    O..L    MOV      r12,#0xff000000
        0x000019f6:    ea1c0f41    ..A.    TST      r12,r1,LSL #1
        0x000019fa:    eba253d1    ...S    SUB      r3,r2,r1,LSR #23
        0x000019fe:    bf18        ..      IT       NE
        0x00001a00:    ea9c6f02    ...o    TEQNE    r12,r2,LSL #24
        0x00001a04:    f000803b    ..;.    BEQ.W    0x1a7e ; _fadd1 + 152
        0x00001a08:    f04f4c00    O..L    MOV      r12,#0x80000000
        0x00001a0c:    ea4c2000    L..     ORR      r0,r12,r0,LSL #8
        0x00001a10:    ea4c2101    L..!    ORR      r1,r12,r1,LSL #8
        0x00001a14:    fa21fc03    !...    LSR      r12,r1,r3
        0x00001a18:    eb100c0c    ....    ADDS     r12,r0,r12
        0x00001a1c:    d21e        ..      BCS      0x1a5c ; _fadd1 + 118
        0x00001a1e:    f10232ff    ...2    ADD      r2,r2,#0xffffffff
        0x00001a22:    ea5f201c    _..     LSRS     r0,r12,#8
        0x00001a26:    eb4050c2    @..P    ADC      r0,r0,r2,LSL #23
        0x00001a2a:    bf38        8.      IT       CC
        0x00001a2c:    4770        pG      BXCC     lr
        0x00001a2e:    f01c0f7f    ....    TST      r12,#0x7f
        0x00001a32:    ea4f0c40    O.@.    LSL      r12,r0,#1
        0x00001a36:    bf18        ..      IT       NE
        0x00001a38:    f1bc4f7f    ...O    CMPNE    r12,#0xff000000
        0x00001a3c:    bf38        8.      IT       CC
        0x00001a3e:    4770        pG      BXCC     lr
        0x00001a40:    f1c30320    .. .    RSB      r3,r3,#0x20
        0x00001a44:    4099        .@      LSLS     r1,r1,r3
        0x00001a46:    bf08        ..      IT       EQ
        0x00001a48:    f0200001     ...    BICEQ    r0,r0,#1
        0x00001a4c:    f1bc4f7f    ...O    CMP      r12,#0xff000000
        0x00001a50:    bf38        8.      IT       CC
        0x00001a52:    4770        pG      BXCC     lr
        0x00001a54:    f1a040c0    ...@    SUB      r0,r0,#0x60000000
        0x00001a58:    f000b93b    ..;.    B.W      __fpl_fretinf ; 0x1cd2
        0x00001a5c:    ea4f003c    O.<.    RRX      r0,r12
        0x00001a60:    0a00        ..      LSRS     r0,r0,#8
        0x00001a62:    eb4050c2    @..P    ADC      r0,r0,r2,LSL #23
        0x00001a66:    bf28        (.      IT       CS
        0x00001a68:    f01c0fff    ....    TSTCS    r12,#0xff
        0x00001a6c:    ea4f0c40    O.@.    LSL      r12,r0,#1
        0x00001a70:    d0e6        ..      BEQ      0x1a40 ; _fadd1 + 90
        0x00001a72:    bf18        ..      IT       NE
        0x00001a74:    f1bc4f7f    ...O    CMPNE    r12,#0xff000000
        0x00001a78:    bf38        8.      IT       CC
        0x00001a7a:    4770        pG      BXCC     lr
        0x00001a7c:    e7ea        ..      B        0x1a54 ; _fadd1 + 110
        0x00001a7e:    ea9c6f02    ...o    TEQ      r12,r2,LSL #24
        0x00001a82:    d005        ..      BEQ      0x1a90 ; _fadd1 + 170
        0x00001a84:    ea100f5c    ..\.    TST      r0,r12,LSR #1
        0x00001a88:    bf08        ..      IT       EQ
        0x00001a8a:    f0004000    ...@    ANDEQ    r0,r0,#0x80000000
        0x00001a8e:    4770        pG      BX       lr
        0x00001a90:    b510        ..      PUSH     {r4,lr}
        0x00001a92:    f000f8d8    ....    BL       __fpl_fnaninf ; 0x1c46
        0x00001a96:    bf00        ..      NOP      
    $d
        0x00001a98:    3ebefb64    d..>    DCD    1052703588
    $t
    x$fpl$fcmpinf
    __fpl_fcmp_Inf
        0x00001a9c:    1040        @.      ASRS     r0,r0,#1
        0x00001a9e:    bf58        X.      IT       PL
        0x00001aa0:    f1c04040    ..@@    RSBPL    r0,r0,#0xc0000000
        0x00001aa4:    1049        I.      ASRS     r1,r1,#1
        0x00001aa6:    bf58        X.      IT       PL
        0x00001aa8:    f1c14140    ..@A    RSBPL    r1,r1,#0xc0000000
        0x00001aac:    4281        .B      CMP      r1,r0
        0x00001aae:    f3ef8000    ....    MRS      r0,APSR ; formerly CPSR
        0x00001ab2:    4770        pG      BX       lr
    x$fpl$ffltu
    __aeabi_ui2f
    _ffltu
        0x00001ab4:    fab0f380    ....    CLZ      r3,r0
        0x00001ab8:    fa10f203    ....    LSLS     r2,r0,r3
        0x00001abc:    f1c3039d    ....    RSB      r3,r3,#0x9d
        0x00001ac0:    d00a        ..      BEQ      0x1ad8 ; __aeabi_ui2f + 36
        0x00001ac2:    05d9        ..      LSLS     r1,r3,#23
        0x00001ac4:    eb012012    ...     ADD      r0,r1,r2,LSR #8
        0x00001ac8:    0653        S.      LSLS     r3,r2,#25
        0x00001aca:    bf38        8.      IT       CC
        0x00001acc:    4770        pG      BXCC     lr
        0x00001ace:    f1000001    ....    ADD      r0,r0,#1
        0x00001ad2:    bf08        ..      IT       EQ
        0x00001ad4:    f0200001     ...    BICEQ    r0,r0,#1
        0x00001ad8:    4770        pG      BX       lr
        0x00001ada:    0000        ..      MOVS     r0,r0
    x$fpl$fleqf
    __aeabi_cfcmple
    _fcmple
        0x00001adc:    ea500c01    P...    ORRS     r12,r0,r1
        0x00001ae0:    f1008013    ....    BMI.W    0x1b0a ; __aeabi_cfcmple + 46
        0x00001ae4:    f51c0f00    ....    CMN      r12,#0x800000
        0x00001ae8:    bf58        X.      IT       PL
        0x00001aea:    f5bc0f00    ....    CMPPL    r12,#0x800000
        0x00001aee:    d401        ..      BMI      0x1af4 ; __aeabi_cfcmple + 24
        0x00001af0:    4288        .B      CMP      r0,r1
        0x00001af2:    4770        pG      BX       lr
        0x00001af4:    d707        ..      BVC      0x1b06 ; __aeabi_cfcmple + 42
        0x00001af6:    f5100f00    ....    CMN      r0,#0x800000
        0x00001afa:    bf58        X.      IT       PL
        0x00001afc:    f5110f00    ....    CMNPL    r1,#0x800000
        0x00001b00:    d415        ..      BMI      __fpl_fcmple_InfNaN ; 0x1b2e
        0x00001b02:    4288        .B      CMP      r0,r1
        0x00001b04:    4770        pG      BX       lr
        0x00001b06:    4289        .B      CMP      r1,r1
        0x00001b08:    4770        pG      BX       lr
        0x00001b0a:    f51c0f00    ....    CMN      r12,#0x800000
        0x00001b0e:    d504        ..      BPL      0x1b1a ; __aeabi_cfcmple + 62
        0x00001b10:    f5bc0f00    ....    CMP      r12,#0x800000
        0x00001b14:    d5f7        ..      BPL      0x1b06 ; __aeabi_cfcmple + 42
        0x00001b16:    4281        .B      CMP      r1,r0
        0x00001b18:    4770        pG      BX       lr
        0x00001b1a:    f04f7c80    O..|    MOV      r12,#0x1000000
        0x00001b1e:    eb1c0f40    ..@.    CMN      r12,r0,LSL #1
        0x00001b22:    bf38        8.      IT       CC
        0x00001b24:    eb1c0f41    ..A.    CMNCC    r12,r1,LSL #1
        0x00001b28:    d201        ..      BCS      __fpl_fcmple_InfNaN ; 0x1b2e
        0x00001b2a:    4281        .B      CMP      r1,r0
        0x00001b2c:    4770        pG      BX       lr
    __fpl_fcmple_InfNaN
        0x00001b2e:    b510        ..      PUSH     {r4,lr}
        0x00001b30:    f000f889    ....    BL       __fpl_fnaninf ; 0x1c46
    $d
        0x00001b34:    00492492    .$I.    DCD    4793490
    $t
        0x00001b38:    f04f5000    O..P    MOV      r0,#0x20000000
        0x00001b3c:    f04f5180    O..Q    MOV      r1,#0x10000000
        0x00001b40:    f7ffbfac    ....    B.W      __fpl_fcmp_Inf ; 0x1a9c
    x$fpl$fmul
    __aeabi_fmul
    _fmul
        0x00001b44:    f44f0c7f    O...    MOV      r12,#0xff0000
        0x00001b48:    ea1c12d0    ....    ANDS     r2,r12,r0,LSR #7
        0x00001b4c:    bf1e        ..      ITTT     NE
        0x00001b4e:    ea1c13d1    ....    ANDSNE   r3,r12,r1,LSR #7
        0x00001b52:    ea920f0c    ....    TEQNE    r2,r12
        0x00001b56:    ea930f0c    ....    TEQNE    r3,r12
        0x00001b5a:    f0008047    ..G.    BEQ.W    0x1bec ; __aeabi_fmul + 168
        0x00001b5e:    ea900f01    ....    TEQ      r0,r1
        0x00001b62:    bf48        H.      IT       MI
        0x00001b64:    f4427280    B..r    ORRMI    r2,r2,#0x100
        0x00001b68:    f04f4c00    O..L    MOV      r12,#0x80000000
        0x00001b6c:    ea4c2000    L..     ORR      r0,r12,r0,LSL #8
        0x00001b70:    ea4c2101    L..!    ORR      r1,r12,r1,LSL #8
        0x00001b74:    eb020203    ....    ADD.W    r2,r2,r3
        0x00001b78:    fba01301    ....    UMULL    r1,r3,r0,r1
        0x00001b7c:    f5a20200    ....    SUB      r2,r2,#0x800000
        0x00001b80:    2900        .)      CMP      r1,#0
        0x00001b82:    bf18        ..      IT       NE
        0x00001b84:    f0430301    C...    ORRNE    r3,r3,#1
        0x00001b88:    005b        [.      LSLS     r3,r3,#1
        0x00001b8a:    bf28        (.      IT       CS
        0x00001b8c:    ea4f0333    O.3.    RRXCS    r3,r3
        0x00001b90:    eb424222    B."B    ADC      r2,r2,r2,ASR #16
        0x00001b94:    ea5f2c13    _..,    LSRS     r12,r3,#8
        0x00001b98:    eb4c50c2    L..P    ADC      r0,r12,r2,LSL #23
        0x00001b9c:    bf2e        ..      ITEE     CS
        0x00001b9e:    ebbc6f43    ..Co    CMPCS    r12,r3,LSL #25
        0x00001ba2:    f5b20f7c    ..|.    CMPCC    r2,#0xfc0000
        0x00001ba6:    4770        pG      BXCC     lr
        0x00001ba8:    ea4f6c03    O..l    LSL      r12,r3,#24
        0x00001bac:    f1bc4f00    ...O    CMP      r12,#0x80000000
        0x00001bb0:    bf08        ..      IT       EQ
        0x00001bb2:    f0200001     ...    BICEQ    r0,r0,#1
        0x00001bb6:    f5b20f7c    ..|.    CMP      r2,#0xfc0000
        0x00001bba:    bf38        8.      IT       CC
        0x00001bbc:    4770        pG      BXCC     lr
        0x00001bbe:    d50b        ..      BPL      0x1bd8 ; __aeabi_fmul + 148
        0x00001bc0:    f08202ff    ....    EOR      r2,r2,#0xff
        0x00001bc4:    f5123f80    ...?    CMN      r2,#0x10000
        0x00001bc8:    bfc8        ..      IT       GT
        0x00001bca:    4770        pG      BXGT     lr
        0x00001bcc:    f10040c0    ...@    ADD      r0,r0,#0x60000000
        0x00001bd0:    bfd8        ..      IT       LE
        0x00001bd2:    f0004000    ...@    ANDLE    r0,r0,#0x80000000
        0x00001bd6:    4770        pG      BX       lr
        0x00001bd8:    f5000c00    ....    ADD      r12,r0,#0x800000
        0x00001bdc:    ea5f0c4c    _.L.    LSLS     r12,r12,#1
        0x00001be0:    bf48        H.      IT       MI
        0x00001be2:    4770        pG      BXMI     lr
        0x00001be4:    f1b040c0    ...@    SUBS     r0,r0,#0x60000000
        0x00001be8:    f000b873    ..s.    B.W      __fpl_fretinf ; 0x1cd2
        0x00001bec:    ea900f01    ....    TEQ      r0,r1
        0x00001bf0:    ea0c13d1    ....    AND      r3,r12,r1,LSR #7
        0x00001bf4:    bf48        H.      IT       MI
        0x00001bf6:    f4427280    B..r    ORRMI    r2,r2,#0x100
        0x00001bfa:    4562        bE      CMP      r2,r12
        0x00001bfc:    bf38        8.      IT       CC
        0x00001bfe:    4563        cE      CMPCC    r3,r12
        0x00001c00:    d204        ..      BCS      0x1c0c ; __aeabi_fmul + 200
        0x00001c02:    ea800001    ....    EOR      r0,r0,r1
        0x00001c06:    f0004000    ...@    AND      r0,r0,#0x80000000
        0x00001c0a:    4770        pG      BX       lr
        0x00001c0c:    b510        ..      PUSH     {r4,lr}
        0x00001c0e:    f000f81a    ....    BL       __fpl_fnaninf ; 0x1c46
        0x00001c12:    bf00        ..      NOP      
    $d
        0x00001c14:    3e010089    ...>    DCD    1040253065
    $t
        0x00001c18:    f000b807    ....    B.W      0x1c2a ; __aeabi_fmul + 230
        0x00001c1c:    f000b809    ....    B.W      0x1c32 ; __aeabi_fmul + 238
        0x00001c20:    ea5f0c41    _.A.    LSLS     r12,r1,#1
        0x00001c24:    ea5f6c1c    _..l    LSRS     r12,r12,#24
        0x00001c28:    d008        ..      BEQ      0x1c3c ; __aeabi_fmul + 248
        0x00001c2a:    ea800001    ....    EOR      r0,r0,r1
        0x00001c2e:    f000b850    ..P.    B.W      __fpl_fretinf ; 0x1cd2
        0x00001c32:    ea5f0c40    _.@.    LSLS     r12,r0,#1
        0x00001c36:    ea5f6c1c    _..l    LSRS     r12,r12,#24
        0x00001c3a:    d1f6        ..      BNE      0x1c2a ; __aeabi_fmul + 230
        0x00001c3c:    f04f4000    O..@    MOV      r0,#0x80000000
        0x00001c40:    f5a00080    ....    SUB      r0,r0,#0x400000
        0x00001c44:    4770        pG      BX       lr
    x$fpl$fnaninf
    __fpl_fnaninf
        0x00001c46:    f10e0e02    ....    ADD      lr,lr,#2
        0x00001c4a:    f02e0e03    ....    BIC      lr,lr,#3
        0x00001c4e:    f85e4b04    ^..K    LDR      r4,[lr],#4
        0x00001c52:    4224        $B      TST      r4,r4
        0x00001c54:    d404        ..      BMI      0x1c60 ; __fpl_fnaninf + 26
        0x00001c56:    ea4f0241    O.A.    LSL      r2,r1,#1
        0x00001c5a:    f1b24f7f    ...O    CMP      r2,#0xff000000
        0x00001c5e:    d811        ..      BHI      0x1c84 ; __fpl_fnaninf + 62
        0x00001c60:    ea4f0340    O.@.    LSL      r3,r0,#1
        0x00001c64:    f1b34f7f    ...O    CMP      r3,#0xff000000
        0x00001c68:    d80c        ..      BHI      0x1c84 ; __fpl_fnaninf + 62
        0x00001c6a:    d10e        ..      BNE      0x1c8a ; __fpl_fnaninf + 68
        0x00001c6c:    ea4f7cd0    O..|    LSR      r12,r0,#31
        0x00001c70:    f1b24f7f    ...O    CMP      r2,#0xff000000
        0x00001c74:    eb0c0c4c    ..L.    ADD      r12,r12,r12,LSL #1
        0x00001c78:    f10c0c02    ....    ADD      r12,r12,#2
        0x00001c7c:    bf08        ..      IT       EQ
        0x00001c7e:    eb4c7cd1    L..|    ADCEQ    r12,r12,r1,LSR #31
        0x00001c82:    e004        ..      B        0x1c8e ; __fpl_fnaninf + 72
        0x00001c84:    f04f0c08    O...    MOV      r12,#8
        0x00001c88:    e001        ..      B        0x1c8e ; __fpl_fnaninf + 72
        0x00001c8a:    ea4f7cd1    O..|    LSR      r12,r1,#31
        0x00001c8e:    eb0c034c    ..L.    ADD      r3,r12,r12,LSL #1
        0x00001c92:    fa24f403    $...    LSR      r4,r4,r3
        0x00001c96:    f0040407    ....    AND      r4,r4,#7
        0x00001c9a:    f1b40c04    ....    SUBS     r12,r4,#4
        0x00001c9e:    d206        ..      BCS      0x1cae ; __fpl_fnaninf + 104
        0x00001ca0:    eb0e0c84    ....    ADD      r12,lr,r4,LSL #2
        0x00001ca4:    e8bd4010    ...@    POP      {r4,lr}
        0x00001ca8:    f04c0c01    L...    ORR      r12,r12,#1
        0x00001cac:    4760        `G      BX       r12
        0x00001cae:    e8dff00c    ....    TBB      [pc,r12]
    $d
        0x00001cb2:    0807        ..      DCW    2055
        0x00001cb4:    0202        ..      DCW    514
    $t
        0x00001cb6:    f04f4000    O..@    MOV      r0,#0x80000000
        0x00001cba:    f5a00080    ....    SUB      r0,r0,#0x400000
        0x00001cbe:    bd10        ..      POP      {r4,pc}
        0x00001cc0:    4608        .F      MOV      r0,r1
        0x00001cc2:    0042        B.      LSLS     r2,r0,#1
        0x00001cc4:    bf18        ..      IT       NE
        0x00001cc6:    f1d27280    ...r    RSBSNE   r2,r2,#0x1000000
        0x00001cca:    bf88        ..      IT       HI
        0x00001ccc:    f0004000    ...@    ANDHI    r0,r0,#0x80000000
        0x00001cd0:    bd10        ..      POP      {r4,pc}
    x$fpl$fretinf
    __fpl_fretinf
        0x00001cd2:    21ff        .!      MOVS     r1,#0xff
        0x00001cd4:    ea4150d0    A..P    ORR      r0,r1,r0,LSR #23
        0x00001cd8:    05c0        ..      LSLS     r0,r0,#23
        0x00001cda:    4770        pG      BX       lr
    x$fpl$frleqf
    __aeabi_cfrcmple
    _frcmple
        0x00001cdc:    ea510c00    Q...    ORRS     r12,r1,r0
        0x00001ce0:    f1008013    ....    BMI.W    0x1d0a ; __aeabi_cfrcmple + 46
        0x00001ce4:    f51c0f00    ....    CMN      r12,#0x800000
        0x00001ce8:    bf58        X.      IT       PL
        0x00001cea:    f5bc0f00    ....    CMPPL    r12,#0x800000
        0x00001cee:    d401        ..      BMI      0x1cf4 ; __aeabi_cfrcmple + 24
        0x00001cf0:    4281        .B      CMP      r1,r0
        0x00001cf2:    4770        pG      BX       lr
        0x00001cf4:    d707        ..      BVC      0x1d06 ; __aeabi_cfrcmple + 42
        0x00001cf6:    f5110f00    ....    CMN      r1,#0x800000
        0x00001cfa:    bf58        X.      IT       PL
        0x00001cfc:    f5100f00    ....    CMNPL    r0,#0x800000
        0x00001d00:    d415        ..      BMI      0x1d2e ; __aeabi_cfrcmple + 82
        0x00001d02:    4281        .B      CMP      r1,r0
        0x00001d04:    4770        pG      BX       lr
        0x00001d06:    4289        .B      CMP      r1,r1
        0x00001d08:    4770        pG      BX       lr
        0x00001d0a:    f51c0f00    ....    CMN      r12,#0x800000
        0x00001d0e:    d504        ..      BPL      0x1d1a ; __aeabi_cfrcmple + 62
        0x00001d10:    f5bc0f00    ....    CMP      r12,#0x800000
        0x00001d14:    d5f7        ..      BPL      0x1d06 ; __aeabi_cfrcmple + 42
        0x00001d16:    4288        .B      CMP      r0,r1
        0x00001d18:    4770        pG      BX       lr
        0x00001d1a:    f04f7c80    O..|    MOV      r12,#0x1000000
        0x00001d1e:    eb1c0f41    ..A.    CMN      r12,r1,LSL #1
        0x00001d22:    bf38        8.      IT       CC
        0x00001d24:    eb1c0f40    ..@.    CMNCC    r12,r0,LSL #1
        0x00001d28:    d201        ..      BCS      0x1d2e ; __aeabi_cfrcmple + 82
        0x00001d2a:    4288        .B      CMP      r0,r1
        0x00001d2c:    4770        pG      BX       lr
        0x00001d2e:    ea800001    ....    EOR      r0,r0,r1
        0x00001d32:    ea810100    ....    EOR      r1,r1,r0
        0x00001d36:    ea800001    ....    EOR      r0,r0,r1
        0x00001d3a:    f7ffbef8    ....    B.W      __fpl_fcmple_InfNaN ; 0x1b2e
        0x00001d3e:    0000        ..      MOVS     r0,r0
    x$fpl$fsub
    __aeabi_fsub
    _fsub
        0x00001d40:    ea900f01    ....    TEQ      r0,r1
        0x00001d44:    bf48        H.      IT       MI
        0x00001d46:    f0814100    ...A    EORMI    r1,r1,#0x80000000
        0x00001d4a:    f53fae4c    ?.L.    BMI      _fadd1 ; 0x19e6
    _fsub1
        0x00001d4e:    1a42        B.      SUBS     r2,r0,r1
        0x00001d50:    d804        ..      BHI      0x1d5c ; _fsub1 + 14
        0x00001d52:    f0824200    ...B    EOR      r2,r2,#0x80000000
        0x00001d56:    eba00002    ....    SUB      r0,r0,r2
        0x00001d5a:    4411        .D      ADD      r1,r1,r2
        0x00001d5c:    ea4f52d0    O..R    LSR      r2,r0,#23
        0x00001d60:    f04f4c7f    O..L    MOV      r12,#0xff000000
        0x00001d64:    ea1c0f41    ..A.    TST      r12,r1,LSL #1
        0x00001d68:    eba253d1    ...S    SUB      r3,r2,r1,LSR #23
        0x00001d6c:    bf18        ..      IT       NE
        0x00001d6e:    ea9c6f02    ...o    TEQNE    r12,r2,LSL #24
        0x00001d72:    d04a        J.      BEQ      0x1e0a ; _fsub1 + 188
        0x00001d74:    f04f4c00    O..L    MOV      r12,#0x80000000
        0x00001d78:    ea4c2000    L..     ORR      r0,r12,r0,LSL #8
        0x00001d7c:    ea4c2101    L..!    ORR      r1,r12,r1,LSL #8
        0x00001d80:    fa21fc03    !...    LSR      r12,r1,r3
        0x00001d84:    ebb00c0c    ....    SUBS     r12,r0,r12
        0x00001d88:    d40f        ..      BMI      0x1daa ; _fsub1 + 92
        0x00001d8a:    f0120ffe    ....    TST      r2,#0xfe
        0x00001d8e:    d036        6.      BEQ      0x1dfe ; _fsub1 + 176
        0x00001d90:    ea5f004c    _.L.    LSLS     r0,r12,#1
        0x00001d94:    d51d        ..      BPL      0x1dd2 ; _fsub1 + 132
        0x00001d96:    1200        ..      ASRS     r0,r0,#8
        0x00001d98:    eb4050c2    @..P    ADC      r0,r0,r2,LSL #23
        0x00001d9c:    bf38        8.      IT       CC
        0x00001d9e:    4770        pG      BXCC     lr
        0x00001da0:    f01c0f3f    ..?.    TST      r12,#0x3f
        0x00001da4:    bf18        ..      IT       NE
        0x00001da6:    4770        pG      BXNE     lr
        0x00001da8:    e00b        ..      B        0x1dc2 ; _fsub1 + 116
        0x00001daa:    f1a20201    ....    SUB      r2,r2,#1
        0x00001dae:    ea5f201c    _..     LSRS     r0,r12,#8
        0x00001db2:    eb4050c2    @..P    ADC      r0,r0,r2,LSL #23
        0x00001db6:    bf38        8.      IT       CC
        0x00001db8:    4770        pG      BXCC     lr
        0x00001dba:    f01c0f7f    ....    TST      r12,#0x7f
        0x00001dbe:    bf18        ..      IT       NE
        0x00001dc0:    4770        pG      BXNE     lr
        0x00001dc2:    f1c30320    .. .    RSB      r3,r3,#0x20
        0x00001dc6:    4099        .@      LSLS     r1,r1,r3
        0x00001dc8:    bf14        ..      ITE      NE
        0x00001dca:    1e40        @.      SUBNE    r0,r0,#1
        0x00001dcc:    f0200001     ...    BICEQ    r0,r0,#1
        0x00001dd0:    4770        pG      BX       lr
        0x00001dd2:    0880        ..      LSRS     r0,r0,#2
        0x00001dd4:    ea4f2312    O..#    LSR      r3,r2,#8
        0x00001dd8:    bf08        ..      IT       EQ
        0x00001dda:    4770        pG      BXEQ     lr
        0x00001ddc:    fab0fc80    ....    CLZ      r12,r0
        0x00001de0:    eba2020c    ....    SUB      r2,r2,r12
        0x00001de4:    f1cc0c28    ..(.    RSB      r12,r12,#0x28
        0x00001de8:    fa60f00c    `...    ROR      r0,r0,r12
        0x00001dec:    ea932f12    .../    TEQ      r3,r2,LSR #8
        0x00001df0:    bf04        ..      ITT      EQ
        0x00001df2:    eb0050c2    ...P    ADDEQ    r0,r0,r2,LSL #23
        0x00001df6:    4770        pG      BXEQ     lr
        0x00001df8:    ea4f70c3    O..p    LSL      r0,r3,#31
        0x00001dfc:    4770        pG      BX       lr
        0x00001dfe:    0a13        ..      LSRS     r3,r2,#8
        0x00001e00:    ea5f10dc    _...    LSRS     r0,r12,#7
        0x00001e04:    bf08        ..      IT       EQ
        0x00001e06:    4770        pG      BXEQ     lr
        0x00001e08:    e7f6        ..      B        0x1df8 ; _fsub1 + 170
        0x00001e0a:    ea9c6f02    ...o    TEQ      r12,r2,LSL #24
        0x00001e0e:    d004        ..      BEQ      0x1e1a ; _fsub1 + 204
        0x00001e10:    ea100f5c    ..\.    TST      r0,r12,LSR #1
        0x00001e14:    bf08        ..      IT       EQ
        0x00001e16:    2000        .       MOVEQ    r0,#0
        0x00001e18:    4770        pG      BX       lr
        0x00001e1a:    b510        ..      PUSH     {r4,lr}
        0x00001e1c:    f7ffff13    ....    BL       __fpl_fnaninf ; 0x1c46
    $d
        0x00001e20:    3ef6df40    @..>    DCD    1056366400
    $t
        0x00001e24:    f0814000    ...@    EOR      r0,r1,#0x80000000
        0x00001e28:    4770        pG      BX       lr
    x$fpl$printf1
    _printf_fp_dec
        0x00001e2a:    f7febd47    ..G.    B        _printf_fp_dec_real ; 0x8bc
    x$fpl$usenofp
    __I$use$fp
        0x00001e2e:    0000        ..      MOVS     r0,r0
    $d.realdata
    .constdata
    tenpwrs_x
        0x00001e30:    00004002    .@..    DCD    16386
        0x00001e34:    a0000000    ....    DCD    2684354560
        0x00001e38:    00000000    ....    DCD    0
        0x00001e3c:    00004005    .@..    DCD    16389
        0x00001e40:    c8000000    ....    DCD    3355443200
        0x00001e44:    00000000    ....    DCD    0
        0x00001e48:    0000400c    .@..    DCD    16396
        0x00001e4c:    9c400000    ..@.    DCD    2621440000
        0x00001e50:    00000000    ....    DCD    0
        0x00001e54:    00004019    .@..    DCD    16409
        0x00001e58:    bebc2000    . ..    DCD    3200000000
        0x00001e5c:    00000000    ....    DCD    0
        0x00001e60:    00004034    4@..    DCD    16436
        0x00001e64:    8e1bc9bf    ....    DCD    2384185791
        0x00001e68:    04000000    ....    DCD    67108864
    tenpwrs_i
        0x00001e6c:    000040b5    .@..    DCD    16565
        0x00001e70:    d0cf4b50    PK..    DCD    3503246160
        0x00001e74:    cfe20766    f...    DCD    3487696742
        0x00001e78:    00000001    ....    DCD    1
        0x00001e7c:    0000416c    lA..    DCD    16748
        0x00001e80:    aa51823e    >.Q.    DCD    2857468478
        0x00001e84:    34a7eedf    ...4    DCD    883420895
        0x00001e88:    00000001    ....    DCD    1
        0x00001e8c:    000042d9    .B..    DCD    17113
        0x00001e90:    e2a0b5dc    ....    DCD    3802183132
        0x00001e94:    971f303a    :0..    DCD    2535403578
        0x00001e98:    ffffffff    ....    DCD    4294967295
        0x00001e9c:    000045b4    .E..    DCD    17844
        0x00001ea0:    c8a025fd    .%..    DCD    3365938685
        0x00001ea4:    4fc1a3e9    ...O    DCD    1338090473
        0x00001ea8:    ffffffff    ....    DCD    4294967295
        0x00001eac:    00003fff    .?..    DCD    16383
        0x00001eb0:    80000000    ....    DCD    2147483648
        0x00001eb4:    00000000    ....    DCD    0
        0x00001eb8:    00003fff    .?..    DCD    16383
        0x00001ebc:    80000000    ....    DCD    2147483648
        0x00001ec0:    00000000    ....    DCD    0
    Region$$Table$$Base
        0x00001ec4:    00001f00    ....    DCD    7936
        0x00001ec8:    20000000    ...     DCD    536870912
        0x00001ecc:    00000018    ....    DCD    24
        0x00001ed0:    000003fc    ....    DCD    1020
        0x00001ed4:    00001f18    ....    DCD    7960
        0x00001ed8:    20000018    ...     DCD    536870936
        0x00001edc:    00000460    `...    DCD    1120
        0x00001ee0:    00000418    ....    DCD    1048
    locale$$data
    Region$$Table$$Limit
        0x00001ee4:    0000001c    ....    DCD    28
    __lcnum_c_name
        0x00001ee8:    00000043    C...    DCD    67
        0x00001eec:    fffffff8    ....    DCD    4294967288
    __lcnum_c_start
        0x00001ef0:    0000000c    ....    DCD    12
        0x00001ef4:    0000000e    ....    DCD    14
        0x00001ef8:    0000000f    ....    DCD    15
    __lcnum_c_point
        0x00001efc:    002e        ..      DCW    46
    __lcnum_c_thousands
        0x00001efe:    00          .       DCB    0
    __lcnum_c_grouping
        0x00001eff:    00          .       DCB    0
    __lcnum_c_end

** Section #2 'RW_IRAM1' (SHT_PROGBITS) [SHF_ALLOC + SHF_WRITE]
    Size   : 24 bytes (alignment 4)
    Address: 0x20000000


** Section #3 'RW_IRAM1' (SHT_NOBITS) [SHF_ALLOC + SHF_WRITE]
    Size   : 1120 bytes (alignment 8)
    Address: 0x20000018


** Section #4 '.debug_abbrev' (SHT_PROGBITS)
    Size   : 1476 bytes


** Section #5 '.debug_frame' (SHT_PROGBITS)
    Size   : 2276 bytes


** Section #6 '.debug_info' (SHT_PROGBITS)
    Size   : 12180 bytes


** Section #7 '.debug_line' (SHT_PROGBITS)
    Size   : 2552 bytes


** Section #8 '.debug_loc' (SHT_PROGBITS)
    Size   : 708 bytes


** Section #9 '.debug_macinfo' (SHT_PROGBITS)
    Size   : 28088 bytes


** Section #10 '.debug_pubnames' (SHT_PROGBITS)
    Size   : 579 bytes


** Section #11 '.symtab' (SHT_SYMTAB)
    Size   : 7152 bytes (alignment 4)
    String table #12 '.strtab'
    Last local symbol no. 292


** Section #12 '.strtab' (SHT_STRTAB)
    Size   : 6060 bytes


** Section #13 '.note' (SHT_NOTE)
    Size   : 28 bytes (alignment 4)


** Section #14 '.comment' (SHT_PROGBITS)
    Size   : 4604 bytes


** Section #15 '.shstrtab' (SHT_STRTAB)
    Size   : 156 bytes


address     size       variable name                            type
0x20000014  0x4        SystemCoreClock                          uint32_t

address     size       variable name                            type
0x2000000c  0x4        g_temCof                                 float

address     size       variable name                            type
0x20000008  0x4        ITM_RxBuffer                             volatile int32_t

address     size       variable name                            type
0x20000004  0x4        __stdin                                  FILE
0x20000004  0x4        __stdin.handle                           int

address     size       variable name                            type
0x20000000  0x4        __stdout                                 FILE
0x20000000  0x4        __stdout.handle                          int

