
========================================================================

** ELF Header Information

    File Name: Objects\template.axf

    Machine class: ELFCLASS32 (32-bit)
    Data encoding: ELFDATA2LSB (Little endian)
    Header version: EV_CURRENT (Current version)
    Operating System ABI: none
    ABI Version: 0
    File Type: ET_EXEC (Executable) (2)
    Machine: EM_ARM (ARM)

    Image Entry point: 0x000003c1
    Flags: EF_ARM_HASENTRY + EF_ARM_ABI_FLOAT_SOFT (0x05000202)

    ARM ELF revision: 5 (ABI version 2)

    Conforms to Soft float procedure-call standard

    Built with
    Component: ARM Compiler 5.06 update 6 (build 750) Tool: armasm [4d35ec]
    Component: ARM Compiler 5.06 update 6 (build 750) Tool: armlink [4d35ed]

    Header size: 52 bytes (0x34)
    Program header entry size: 32 bytes (0x20)
    Section header entry size: 40 bytes (0x28)

    Program header entries: 1
    Section header entries: 16

    Program header offset: 55668 (0x0000d974)
    Section header offset: 55700 (0x0000d994)

    Section header string table index: 15

========================================================================

** Program header #0 (PT_LOAD) [PF_X + PF_W + PF_R + PF_ARM_ENTRY]
    Size : 3052 bytes (2028 bytes in file)
    Virtual address: 0x00000000 (Alignment 8)


========================================================================

** Section #1 'ER_IROM1' (SHT_PROGBITS) [SHF_ALLOC + SHF_EXECINSTR]
    Size   : 2012 bytes (alignment 4)
    Address: 0x00000000

    $d.realdata
    RESET
    __Vectors
        0x00000000:    20000410    ...     DCD    536871952
        0x00000004:    00000469    i...    DCD    1129
        0x00000008:    00000473    s...    DCD    1139
        0x0000000c:    00000471    q...    DCD    1137
        0x00000010:    00000475    u...    DCD    1141
        0x00000014:    00000477    w...    DCD    1143
        0x00000018:    00000479    y...    DCD    1145
        0x0000001c:    00000000    ....    DCD    0
        0x00000020:    00000000    ....    DCD    0
        0x00000024:    00000000    ....    DCD    0
        0x00000028:    00000000    ....    DCD    0
        0x0000002c:    0000047b    {...    DCD    1147
        0x00000030:    0000047d    }...    DCD    1149
        0x00000034:    00000000    ....    DCD    0
        0x00000038:    0000047f    ....    DCD    1151
        0x0000003c:    00000481    ....    DCD    1153
        0x00000040:    00000483    ....    DCD    1155
        0x00000044:    00000485    ....    DCD    1157
        0x00000048:    00000487    ....    DCD    1159
        0x0000004c:    00000489    ....    DCD    1161
        0x00000050:    0000048b    ....    DCD    1163
        0x00000054:    0000048d    ....    DCD    1165
        0x00000058:    0000048f    ....    DCD    1167
        0x0000005c:    00000491    ....    DCD    1169
        0x00000060:    00000493    ....    DCD    1171
        0x00000064:    00000495    ....    DCD    1173
        0x00000068:    00000000    ....    DCD    0
        0x0000006c:    00000000    ....    DCD    0
        0x00000070:    00000000    ....    DCD    0
        0x00000074:    00000000    ....    DCD    0
        0x00000078:    00000000    ....    DCD    0
        0x0000007c:    00000000    ....    DCD    0
        0x00000080:    00000000    ....    DCD    0
        0x00000084:    00000000    ....    DCD    0
        0x00000088:    00000000    ....    DCD    0
        0x0000008c:    00000000    ....    DCD    0
        0x00000090:    00000000    ....    DCD    0
        0x00000094:    00000000    ....    DCD    0
        0x00000098:    00000000    ....    DCD    0
        0x0000009c:    00000000    ....    DCD    0
        0x000000a0:    00000000    ....    DCD    0
        0x000000a4:    00000000    ....    DCD    0
        0x000000a8:    00000000    ....    DCD    0
        0x000000ac:    00000000    ....    DCD    0
        0x000000b0:    00000000    ....    DCD    0
        0x000000b4:    00000000    ....    DCD    0
        0x000000b8:    00000000    ....    DCD    0
        0x000000bc:    00000000    ....    DCD    0
        0x000000c0:    00000000    ....    DCD    0
        0x000000c4:    00000000    ....    DCD    0
        0x000000c8:    00000000    ....    DCD    0
        0x000000cc:    00000000    ....    DCD    0
        0x000000d0:    00000000    ....    DCD    0
        0x000000d4:    00000000    ....    DCD    0
        0x000000d8:    00000000    ....    DCD    0
        0x000000dc:    00000000    ....    DCD    0
        0x000000e0:    00000000    ....    DCD    0
        0x000000e4:    00000000    ....    DCD    0
        0x000000e8:    00000000    ....    DCD    0
        0x000000ec:    00000000    ....    DCD    0
        0x000000f0:    00000000    ....    DCD    0
        0x000000f4:    00000000    ....    DCD    0
        0x000000f8:    00000000    ....    DCD    0
        0x000000fc:    00000000    ....    DCD    0
        0x00000100:    00000000    ....    DCD    0
        0x00000104:    00000000    ....    DCD    0
        0x00000108:    00000000    ....    DCD    0
        0x0000010c:    00000000    ....    DCD    0
        0x00000110:    00000000    ....    DCD    0
        0x00000114:    00000000    ....    DCD    0
        0x00000118:    00000000    ....    DCD    0
        0x0000011c:    00000000    ....    DCD    0
        0x00000120:    00000000    ....    DCD    0
        0x00000124:    00000000    ....    DCD    0
        0x00000128:    00000000    ....    DCD    0
        0x0000012c:    00000000    ....    DCD    0
        0x00000130:    00000000    ....    DCD    0
        0x00000134:    00000000    ....    DCD    0
        0x00000138:    00000000    ....    DCD    0
        0x0000013c:    00000000    ....    DCD    0
        0x00000140:    00000000    ....    DCD    0
        0x00000144:    00000000    ....    DCD    0
        0x00000148:    00000000    ....    DCD    0
        0x0000014c:    00000000    ....    DCD    0
        0x00000150:    00000000    ....    DCD    0
        0x00000154:    00000000    ....    DCD    0
        0x00000158:    00000000    ....    DCD    0
        0x0000015c:    00000000    ....    DCD    0
        0x00000160:    00000000    ....    DCD    0
        0x00000164:    00000000    ....    DCD    0
        0x00000168:    00000000    ....    DCD    0
        0x0000016c:    00000000    ....    DCD    0
        0x00000170:    00000000    ....    DCD    0
        0x00000174:    00000000    ....    DCD    0
        0x00000178:    00000000    ....    DCD    0
        0x0000017c:    00000000    ....    DCD    0
        0x00000180:    00000000    ....    DCD    0
        0x00000184:    00000000    ....    DCD    0
        0x00000188:    00000000    ....    DCD    0
        0x0000018c:    00000000    ....    DCD    0
        0x00000190:    00000000    ....    DCD    0
        0x00000194:    00000000    ....    DCD    0
        0x00000198:    00000000    ....    DCD    0
        0x0000019c:    00000000    ....    DCD    0
        0x000001a0:    00000000    ....    DCD    0
        0x000001a4:    00000000    ....    DCD    0
        0x000001a8:    00000000    ....    DCD    0
        0x000001ac:    00000000    ....    DCD    0
        0x000001b0:    00000000    ....    DCD    0
        0x000001b4:    00000000    ....    DCD    0
        0x000001b8:    00000000    ....    DCD    0
        0x000001bc:    00000000    ....    DCD    0
        0x000001c0:    00000000    ....    DCD    0
        0x000001c4:    00000000    ....    DCD    0
        0x000001c8:    00000000    ....    DCD    0
        0x000001cc:    00000000    ....    DCD    0
        0x000001d0:    00000000    ....    DCD    0
        0x000001d4:    00000000    ....    DCD    0
        0x000001d8:    00000000    ....    DCD    0
        0x000001dc:    00000000    ....    DCD    0
        0x000001e0:    00000000    ....    DCD    0
        0x000001e4:    00000000    ....    DCD    0
        0x000001e8:    00000000    ....    DCD    0
        0x000001ec:    00000000    ....    DCD    0
        0x000001f0:    00000000    ....    DCD    0
        0x000001f4:    00000000    ....    DCD    0
        0x000001f8:    00000000    ....    DCD    0
        0x000001fc:    00000000    ....    DCD    0
        0x00000200:    00000000    ....    DCD    0
        0x00000204:    00000000    ....    DCD    0
        0x00000208:    00000000    ....    DCD    0
        0x0000020c:    00000000    ....    DCD    0
        0x00000210:    00000000    ....    DCD    0
        0x00000214:    00000000    ....    DCD    0
        0x00000218:    00000000    ....    DCD    0
        0x0000021c:    00000000    ....    DCD    0
        0x00000220:    00000000    ....    DCD    0
        0x00000224:    00000000    ....    DCD    0
        0x00000228:    00000000    ....    DCD    0
        0x0000022c:    00000000    ....    DCD    0
        0x00000230:    00000000    ....    DCD    0
        0x00000234:    00000000    ....    DCD    0
        0x00000238:    00000000    ....    DCD    0
        0x0000023c:    00000000    ....    DCD    0
        0x00000240:    00000000    ....    DCD    0
        0x00000244:    00000000    ....    DCD    0
        0x00000248:    00000000    ....    DCD    0
        0x0000024c:    00000000    ....    DCD    0
        0x00000250:    00000000    ....    DCD    0
        0x00000254:    00000000    ....    DCD    0
        0x00000258:    00000000    ....    DCD    0
        0x0000025c:    00000000    ....    DCD    0
        0x00000260:    00000000    ....    DCD    0
        0x00000264:    00000000    ....    DCD    0
        0x00000268:    00000000    ....    DCD    0
        0x0000026c:    00000000    ....    DCD    0
        0x00000270:    00000000    ....    DCD    0
        0x00000274:    00000000    ....    DCD    0
        0x00000278:    00000000    ....    DCD    0
        0x0000027c:    00000000    ....    DCD    0
        0x00000280:    00000000    ....    DCD    0
        0x00000284:    00000000    ....    DCD    0
        0x00000288:    00000000    ....    DCD    0
        0x0000028c:    00000000    ....    DCD    0
        0x00000290:    00000000    ....    DCD    0
        0x00000294:    00000000    ....    DCD    0
        0x00000298:    00000000    ....    DCD    0
        0x0000029c:    00000000    ....    DCD    0
        0x000002a0:    00000000    ....    DCD    0
        0x000002a4:    00000000    ....    DCD    0
        0x000002a8:    00000000    ....    DCD    0
        0x000002ac:    00000000    ....    DCD    0
        0x000002b0:    00000000    ....    DCD    0
        0x000002b4:    00000000    ....    DCD    0
        0x000002b8:    00000000    ....    DCD    0
        0x000002bc:    00000000    ....    DCD    0
        0x000002c0:    00000000    ....    DCD    0
        0x000002c4:    00000000    ....    DCD    0
        0x000002c8:    00000000    ....    DCD    0
        0x000002cc:    00000000    ....    DCD    0
        0x000002d0:    00000000    ....    DCD    0
        0x000002d4:    00000000    ....    DCD    0
        0x000002d8:    00000000    ....    DCD    0
        0x000002dc:    00000000    ....    DCD    0
        0x000002e0:    00000000    ....    DCD    0
        0x000002e4:    00000000    ....    DCD    0
        0x000002e8:    00000000    ....    DCD    0
        0x000002ec:    00000000    ....    DCD    0
        0x000002f0:    00000000    ....    DCD    0
        0x000002f4:    00000000    ....    DCD    0
        0x000002f8:    00000000    ....    DCD    0
        0x000002fc:    00000000    ....    DCD    0
        0x00000300:    00000000    ....    DCD    0
        0x00000304:    00000000    ....    DCD    0
        0x00000308:    00000000    ....    DCD    0
        0x0000030c:    00000000    ....    DCD    0
        0x00000310:    00000000    ....    DCD    0
        0x00000314:    00000000    ....    DCD    0
        0x00000318:    00000000    ....    DCD    0
        0x0000031c:    00000000    ....    DCD    0
        0x00000320:    00000000    ....    DCD    0
        0x00000324:    00000000    ....    DCD    0
        0x00000328:    00000000    ....    DCD    0
        0x0000032c:    00000000    ....    DCD    0
        0x00000330:    00000000    ....    DCD    0
        0x00000334:    00000000    ....    DCD    0
        0x00000338:    00000000    ....    DCD    0
        0x0000033c:    00000000    ....    DCD    0
        0x00000340:    00000000    ....    DCD    0
        0x00000344:    00000000    ....    DCD    0
        0x00000348:    00000000    ....    DCD    0
        0x0000034c:    00000000    ....    DCD    0
        0x00000350:    00000000    ....    DCD    0
        0x00000354:    00000000    ....    DCD    0
        0x00000358:    00000000    ....    DCD    0
        0x0000035c:    00000000    ....    DCD    0
        0x00000360:    00000000    ....    DCD    0
        0x00000364:    00000000    ....    DCD    0
        0x00000368:    00000000    ....    DCD    0
        0x0000036c:    00000000    ....    DCD    0
        0x00000370:    00000000    ....    DCD    0
        0x00000374:    00000000    ....    DCD    0
        0x00000378:    00000000    ....    DCD    0
        0x0000037c:    00000000    ....    DCD    0
        0x00000380:    00000000    ....    DCD    0
        0x00000384:    00000000    ....    DCD    0
        0x00000388:    00000000    ....    DCD    0
        0x0000038c:    00000000    ....    DCD    0
        0x00000390:    00000000    ....    DCD    0
        0x00000394:    00000000    ....    DCD    0
        0x00000398:    00000000    ....    DCD    0
        0x0000039c:    00000000    ....    DCD    0
        0x000003a0:    00000000    ....    DCD    0
        0x000003a4:    00000000    ....    DCD    0
        0x000003a8:    00000000    ....    DCD    0
        0x000003ac:    00000000    ....    DCD    0
        0x000003b0:    00000000    ....    DCD    0
        0x000003b4:    00000000    ....    DCD    0
        0x000003b8:    00000000    ....    DCD    0
        0x000003bc:    00000000    ....    DCD    0
    $t
    !!!main
    __Vectors_End
    __main
        0x000003c0:    f000f802    ....    BL       __scatterload ; 0x3c8
        0x000003c4:    f000f83f    ..?.    BL       __rt_entry ; 0x446
    !!!scatter
    __scatterload
    __scatterload_rt2
    __scatterload_rt2_thumb_only
        0x000003c8:    a00a        ..      ADR      r0,{pc}+0x2c ; 0x3f4
        0x000003ca:    e8900c00    ....    LDM      r0,{r10,r11}
        0x000003ce:    4482        .D      ADD      r10,r10,r0
        0x000003d0:    4483        .D      ADD      r11,r11,r0
        0x000003d2:    f1aa0701    ....    SUB      r7,r10,#1
    __scatterload_null
        0x000003d6:    45da        .E      CMP      r10,r11
        0x000003d8:    d101        ..      BNE      0x3de ; __scatterload_null + 8
        0x000003da:    f000f834    ..4.    BL       __rt_entry ; 0x446
        0x000003de:    f2af0e09    ....    ADR      lr,{pc}-7 ; 0x3d7
        0x000003e2:    e8ba000f    ....    LDM      r10!,{r0-r3}
        0x000003e6:    f0130f01    ....    TST      r3,#1
        0x000003ea:    bf18        ..      IT       NE
        0x000003ec:    1afb        ..      SUBNE    r3,r7,r3
        0x000003ee:    f0430301    C...    ORR      r3,r3,#1
        0x000003f2:    4718        .G      BX       r3
    $d
        0x000003f4:    000003c8    ....    DCD    968
        0x000003f8:    000003e8    ....    DCD    1000
    $t
    !!handler_copy
    __scatterload_copy
        0x000003fc:    3a10        .:      SUBS     r2,r2,#0x10
        0x000003fe:    bf24        $.      ITT      CS
        0x00000400:    c878        x.      LDMCS    r0!,{r3-r6}
        0x00000402:    c178        x.      STMCS    r1!,{r3-r6}
        0x00000404:    d8fa        ..      BHI      __scatterload_copy ; 0x3fc
        0x00000406:    0752        R.      LSLS     r2,r2,#29
        0x00000408:    bf24        $.      ITT      CS
        0x0000040a:    c830        0.      LDMCS    r0!,{r4,r5}
        0x0000040c:    c130        0.      STMCS    r1!,{r4,r5}
        0x0000040e:    bf44        D.      ITT      MI
        0x00000410:    6804        .h      LDRMI    r4,[r0,#0]
        0x00000412:    600c        .`      STRMI    r4,[r1,#0]
        0x00000414:    4770        pG      BX       lr
        0x00000416:    0000        ..      MOVS     r0,r0
    !!handler_zi
    __scatterload_zeroinit
        0x00000418:    2300        .#      MOVS     r3,#0
        0x0000041a:    2400        .$      MOVS     r4,#0
        0x0000041c:    2500        .%      MOVS     r5,#0
        0x0000041e:    2600        .&      MOVS     r6,#0
        0x00000420:    3a10        .:      SUBS     r2,r2,#0x10
        0x00000422:    bf28        (.      IT       CS
        0x00000424:    c178        x.      STMCS    r1!,{r3-r6}
        0x00000426:    d8fb        ..      BHI      0x420 ; __scatterload_zeroinit + 8
        0x00000428:    0752        R.      LSLS     r2,r2,#29
        0x0000042a:    bf28        (.      IT       CS
        0x0000042c:    c130        0.      STMCS    r1!,{r4,r5}
        0x0000042e:    bf48        H.      IT       MI
        0x00000430:    600b        .`      STRMI    r3,[r1,#0]
        0x00000432:    4770        pG      BX       lr
    .ARM.Collect$$_printf_percent$$00000002
    .ARM.Collect$$_printf_percent$$00000000
    _printf_p
    _printf_percent
        0x00000434:    2970        p)      CMP      r1,#0x70
        0x00000436:    f0008073    ..s.    BEQ.W    _printf_hex_ptr ; 0x520
    .ARM.Collect$$_printf_percent$$00000017
    _printf_percent_end
        0x0000043a:    2000        .       MOVS     r0,#0
        0x0000043c:    4770        pG      BX       lr
    .ARM.Collect$$libinit$$00000000
    __rt_lib_init
        0x0000043e:    b51f        ..      PUSH     {r0-r4,lr}
    .ARM.Collect$$libinit$$00000002
    .ARM.Collect$$libinit$$00000004
    .ARM.Collect$$libinit$$0000000A
    .ARM.Collect$$libinit$$0000000C
    .ARM.Collect$$libinit$$0000000E
    .ARM.Collect$$libinit$$00000011
    .ARM.Collect$$libinit$$00000013
    .ARM.Collect$$libinit$$00000015
    .ARM.Collect$$libinit$$00000017
    .ARM.Collect$$libinit$$00000019
    .ARM.Collect$$libinit$$0000001B
    .ARM.Collect$$libinit$$0000001D
    .ARM.Collect$$libinit$$0000001F
    .ARM.Collect$$libinit$$00000021
    .ARM.Collect$$libinit$$00000023
    .ARM.Collect$$libinit$$00000025
    .ARM.Collect$$libinit$$0000002C
    .ARM.Collect$$libinit$$0000002E
    .ARM.Collect$$libinit$$00000030
    .ARM.Collect$$libinit$$00000032
    .ARM.Collect$$libinit$$00000033
    __rt_lib_init_alloca_1
    __rt_lib_init_argv_1
    __rt_lib_init_atexit_1
    __rt_lib_init_clock_1
    __rt_lib_init_cpp_1
    __rt_lib_init_exceptions_1
    __rt_lib_init_fp_1
    __rt_lib_init_fp_trap_1
    __rt_lib_init_getenv_1
    __rt_lib_init_heap_1
    __rt_lib_init_lc_collate_1
    __rt_lib_init_lc_ctype_1
    __rt_lib_init_lc_monetary_1
    __rt_lib_init_lc_numeric_1
    __rt_lib_init_lc_time_1
    __rt_lib_init_preinit_1
    __rt_lib_init_rand_1
    __rt_lib_init_return
    __rt_lib_init_signal_1
    __rt_lib_init_stdio_1
    __rt_lib_init_user_alloc_1
        0x00000440:    bd1f        ..      POP      {r0-r4,pc}
    .ARM.Collect$$libshutdown$$00000000
    __rt_lib_shutdown
        0x00000442:    b510        ..      PUSH     {r4,lr}
    .ARM.Collect$$libshutdown$$00000002
    .ARM.Collect$$libshutdown$$00000004
    .ARM.Collect$$libshutdown$$00000007
    .ARM.Collect$$libshutdown$$0000000A
    .ARM.Collect$$libshutdown$$0000000C
    .ARM.Collect$$libshutdown$$0000000F
    .ARM.Collect$$libshutdown$$00000010
    __rt_lib_shutdown_cpp_1
    __rt_lib_shutdown_fp_trap_1
    __rt_lib_shutdown_heap_1
    __rt_lib_shutdown_return
    __rt_lib_shutdown_signal_1
    __rt_lib_shutdown_stdio_1
    __rt_lib_shutdown_user_alloc_1
        0x00000444:    bd10        ..      POP      {r4,pc}
    .ARM.Collect$$rtentry$$00000000
    .ARM.Collect$$rtentry$$00000002
    .ARM.Collect$$rtentry$$00000005
    __rt_entry
    __rt_entry_presh_1
    __rt_entry_sh
        0x00000446:    f8dfd010    ....    LDR      sp,__lit__00000000 ; [0x458] = 0x20000410
    .ARM.Collect$$rtentry$$00000009
    .ARM.Collect$$rtentry$$0000000A
    __rt_entry_li
    __rt_entry_postsh_1
        0x0000044a:    f7fffff8    ....    BL       __rt_lib_init ; 0x43e
    .ARM.Collect$$rtentry$$0000000C
    .ARM.Collect$$rtentry$$0000000D
    __rt_entry_main
    __rt_entry_postli_1
        0x0000044e:    f000f953    ..S.    BL       main ; 0x6f8
        0x00000452:    f000f915    ....    BL       exit ; 0x680
        0x00000456:    0000        ..      MOVS     r0,r0
    $d
    .ARM.Collect$$rtentry$$00002716
    __lit__00000000
        0x00000458:    20000410    ...     DCD    536871952
    $t
    .ARM.Collect$$rtexit$$00000000
    __rt_exit
        0x0000045c:    b403        ..      PUSH     {r0,r1}
    .ARM.Collect$$rtexit$$00000002
    .ARM.Collect$$rtexit$$00000003
    __rt_exit_ls
    __rt_exit_prels_1
        0x0000045e:    f7fffff0    ....    BL       __rt_lib_shutdown ; 0x442
    .ARM.Collect$$rtexit$$00000004
    __rt_exit_exit
        0x00000462:    bc03        ..      POP      {r0,r1}
        0x00000464:    f000f926    ..&.    BL       _sys_exit ; 0x6b4
    .text
    Reset_Handler
        0x00000468:    480b        .H      LDR      r0,[pc,#44] ; [0x498] = 0x695
        0x0000046a:    4780        .G      BLX      r0
        0x0000046c:    480b        .H      LDR      r0,[pc,#44] ; [0x49c] = 0x3c1
        0x0000046e:    4700        .G      BX       r0
    HardFault_Handler
        0x00000470:    e7fe        ..      B        HardFault_Handler ; 0x470
    NMI_Handler
        0x00000472:    e7fe        ..      B        NMI_Handler ; 0x472
    MemManage_Handler
        0x00000474:    e7fe        ..      B        MemManage_Handler ; 0x474
    BusFault_Handler
        0x00000476:    e7fe        ..      B        BusFault_Handler ; 0x476
    UsageFault_Handler
        0x00000478:    e7fe        ..      B        UsageFault_Handler ; 0x478
    SVC_Handler
        0x0000047a:    e7fe        ..      B        SVC_Handler ; 0x47a
    DebugMon_Handler
        0x0000047c:    e7fe        ..      B        DebugMon_Handler ; 0x47c
    PendSV_Handler
        0x0000047e:    e7fe        ..      B        PendSV_Handler ; 0x47e
    SysTick_Handler
        0x00000480:    e7fe        ..      B        SysTick_Handler ; 0x480
    Interrupt0_Handler
        0x00000482:    e7fe        ..      B        Interrupt0_Handler ; 0x482
    Interrupt1_Handler
        0x00000484:    e7fe        ..      B        Interrupt1_Handler ; 0x484
    Interrupt2_Handler
        0x00000486:    e7fe        ..      B        Interrupt2_Handler ; 0x486
    Interrupt3_Handler
        0x00000488:    e7fe        ..      B        Interrupt3_Handler ; 0x488
    Interrupt4_Handler
        0x0000048a:    e7fe        ..      B        Interrupt4_Handler ; 0x48a
    Interrupt5_Handler
        0x0000048c:    e7fe        ..      B        Interrupt5_Handler ; 0x48c
    Interrupt6_Handler
        0x0000048e:    e7fe        ..      B        Interrupt6_Handler ; 0x48e
    Interrupt7_Handler
        0x00000490:    e7fe        ..      B        Interrupt7_Handler ; 0x490
    Interrupt8_Handler
        0x00000492:    e7fe        ..      B        Interrupt8_Handler ; 0x492
    Interrupt9_Handler
        0x00000494:    e7fe        ..      B        Interrupt9_Handler ; 0x494
    $d
        0x00000496:    0000        ..      DCW    0
        0x00000498:    00000695    ....    DCD    1685
        0x0000049c:    000003c1    ....    DCD    961
    $t
    .text
    __2printf
        0x000004a0:    b40f        ..      PUSH     {r0-r3}
        0x000004a2:    4904        .I      LDR      r1,[pc,#16] ; [0x4b4] = 0x20000000
        0x000004a4:    b510        ..      PUSH     {r4,lr}
        0x000004a6:    aa03        ..      ADD      r2,sp,#0xc
        0x000004a8:    9802        ..      LDR      r0,[sp,#8]
        0x000004aa:    f000f8bf    ....    BL       _printf_char_file ; 0x62c
        0x000004ae:    bc10        ..      POP      {r4}
        0x000004b0:    f85dfb14    ]...    LDR      pc,[sp],#0x14
    $d
        0x000004b4:    20000000    ...     DCD    536870912
    $t
    .text
    __printf
        0x000004b8:    e92d41f0    -..A    PUSH     {r4-r8,lr}
        0x000004bc:    460e        .F      MOV      r6,r1
        0x000004be:    4604        .F      MOV      r4,r0
        0x000004c0:    2000        .       MOVS     r0,#0
        0x000004c2:    6220         b      STR      r0,[r4,#0x20]
        0x000004c4:    4620         F      MOV      r0,r4
        0x000004c6:    68e1        .h      LDR      r1,[r4,#0xc]
        0x000004c8:    4788        .G      BLX      r1
        0x000004ca:    b330        0.      CBZ      r0,0x51a ; __printf + 98
        0x000004cc:    2825        %(      CMP      r0,#0x25
        0x000004ce:    d005        ..      BEQ      0x4dc ; __printf + 36
        0x000004d0:    e9d42101    ...!    LDRD     r2,r1,[r4,#4]
        0x000004d4:    4790        .G      BLX      r2
        0x000004d6:    6a20         j      LDR      r0,[r4,#0x20]
        0x000004d8:    1c40        @.      ADDS     r0,r0,#1
        0x000004da:    e7f2        ..      B        0x4c2 ; __printf + 10
        0x000004dc:    68e1        .h      LDR      r1,[r4,#0xc]
        0x000004de:    4620         F      MOV      r0,r4
        0x000004e0:    2700        .'      MOVS     r7,#0
        0x000004e2:    4788        .G      BLX      r1
        0x000004e4:    0005        ..      MOVS     r5,r0
        0x000004e6:    d018        ..      BEQ      0x51a ; __printf + 98
        0x000004e8:    f1a50041    ..A.    SUB      r0,r5,#0x41
        0x000004ec:    2819        .(      CMP      r0,#0x19
        0x000004ee:    d802        ..      BHI      0x4f6 ; __printf + 62
        0x000004f0:    3520         5      ADDS     r5,r5,#0x20
        0x000004f2:    f44f6700    O..g    MOV      r7,#0x800
        0x000004f6:    4632        2F      MOV      r2,r6
        0x000004f8:    4629        )F      MOV      r1,r5
        0x000004fa:    4620         F      MOV      r0,r4
        0x000004fc:    6027        '`      STR      r7,[r4,#0]
        0x000004fe:    f7ffff99    ....    BL       _printf_p ; 0x434
        0x00000502:    b140        @.      CBZ      r0,0x516 ; __printf + 94
        0x00000504:    2801        .(      CMP      r0,#1
        0x00000506:    d004        ..      BEQ      0x512 ; __printf + 90
        0x00000508:    1df6        ..      ADDS     r6,r6,#7
        0x0000050a:    f0260607    &...    BIC      r6,r6,#7
        0x0000050e:    3608        .6      ADDS     r6,r6,#8
        0x00000510:    e7d8        ..      B        0x4c4 ; __printf + 12
        0x00000512:    1d36        6.      ADDS     r6,r6,#4
        0x00000514:    e7d6        ..      B        0x4c4 ; __printf + 12
        0x00000516:    4628        (F      MOV      r0,r5
        0x00000518:    e7da        ..      B        0x4d0 ; __printf + 24
        0x0000051a:    6a20         j      LDR      r0,[r4,#0x20]
        0x0000051c:    e8bd81f0    ....    POP      {r4-r8,pc}
    .text
    _printf_hex_ptr
    _printf_longlong_hex
        0x00000520:    b4f0        ..      PUSH     {r4-r7}
        0x00000522:    6813        .h      LDR      r3,[r2,#0]
        0x00000524:    6802        .h      LDR      r2,[r0,#0]
        0x00000526:    2408        .$      MOVS     r4,#8
        0x00000528:    61c4        .a      STR      r4,[r0,#0x1c]
        0x0000052a:    460c        .F      MOV      r4,r1
        0x0000052c:    f0420220    B. .    ORR      r2,r2,#0x20
        0x00000530:    6002        .`      STR      r2,[r0,#0]
        0x00000532:    0511        ..      LSLS     r1,r2,#20
        0x00000534:    d502        ..      BPL      0x53c ; _printf_hex_ptr + 28
        0x00000536:    4a0e        .J      LDR      r2,[pc,#56] ; [0x570] = 0x258
        0x00000538:    447a        zD      ADD      r2,r2,pc
        0x0000053a:    e002        ..      B        0x542 ; _printf_hex_ptr + 34
        0x0000053c:    4a0c        .J      LDR      r2,[pc,#48] ; [0x570] = 0x258
        0x0000053e:    447a        zD      ADD      r2,r2,pc
        0x00000540:    320e        .2      ADDS     r2,r2,#0xe
        0x00000542:    2100        .!      MOVS     r1,#0
        0x00000544:    f1000524    ..$.    ADD      r5,r0,#0x24
        0x00000548:    e005        ..      B        0x556 ; _printf_hex_ptr + 54
        0x0000054a:    f003060f    ....    AND      r6,r3,#0xf
        0x0000054e:    091b        ..      LSRS     r3,r3,#4
        0x00000550:    5d96        .]      LDRB     r6,[r2,r6]
        0x00000552:    546e        nT      STRB     r6,[r5,r1]
        0x00000554:    1c49        I.      ADDS     r1,r1,#1
        0x00000556:    2b00        .+      CMP      r3,#0
        0x00000558:    d1f7        ..      BNE      0x54a ; _printf_hex_ptr + 42
        0x0000055a:    7805        .x      LDRB     r5,[r0,#0]
        0x0000055c:    072d        -.      LSLS     r5,r5,#28
        0x0000055e:    d503        ..      BPL      0x568 ; _printf_hex_ptr + 72
        0x00000560:    2c70        p,      CMP      r4,#0x70
        0x00000562:    d101        ..      BNE      0x568 ; _printf_hex_ptr + 72
        0x00000564:    2301        .#      MOVS     r3,#1
        0x00000566:    3210        .2      ADDS     r2,r2,#0x10
        0x00000568:    bcf0        ..      POP      {r4-r7}
        0x0000056a:    f000b806    ....    B.W      _printf_int_common ; 0x57a
    $d
        0x0000056e:    0000        ..      DCW    0
        0x00000570:    00000258    X...    DCD    600
    $t
    .text
    __use_two_region_memory
        0x00000574:    4770        pG      BX       lr
    __rt_heap_escrow$2region
        0x00000576:    4770        pG      BX       lr
    __rt_heap_expand$2region
        0x00000578:    4770        pG      BX       lr
    .text
    _printf_int_common
        0x0000057a:    e92d47f0    -..G    PUSH     {r4-r10,lr}
        0x0000057e:    460d        .F      MOV      r5,r1
        0x00000580:    4699        .F      MOV      r9,r3
        0x00000582:    4692        .F      MOV      r10,r2
        0x00000584:    4604        .F      MOV      r4,r0
        0x00000586:    f1000824    ..$.    ADD      r8,r0,#0x24
        0x0000058a:    6801        .h      LDR      r1,[r0,#0]
        0x0000058c:    0688        ..      LSLS     r0,r1,#26
        0x0000058e:    d504        ..      BPL      0x59a ; _printf_int_common + 32
        0x00000590:    69e0        .i      LDR      r0,[r4,#0x1c]
        0x00000592:    f0210110    !...    BIC      r1,r1,#0x10
        0x00000596:    6021        !`      STR      r1,[r4,#0]
        0x00000598:    e000        ..      B        0x59c ; _printf_int_common + 34
        0x0000059a:    2001        .       MOVS     r0,#1
        0x0000059c:    42a8        .B      CMP      r0,r5
        0x0000059e:    dd01        ..      BLE      0x5a4 ; _printf_int_common + 42
        0x000005a0:    1b47        G.      SUBS     r7,r0,r5
        0x000005a2:    e000        ..      B        0x5a6 ; _printf_int_common + 44
        0x000005a4:    2700        .'      MOVS     r7,#0
        0x000005a6:    69a1        .i      LDR      r1,[r4,#0x18]
        0x000005a8:    197a        z.      ADDS     r2,r7,r5
        0x000005aa:    eb020009    ....    ADD      r0,r2,r9
        0x000005ae:    1a08        ..      SUBS     r0,r1,r0
        0x000005b0:    61a0        .a      STR      r0,[r4,#0x18]
        0x000005b2:    7820         x      LDRB     r0,[r4,#0]
        0x000005b4:    06c0        ..      LSLS     r0,r0,#27
        0x000005b6:    d402        ..      BMI      0x5be ; _printf_int_common + 68
        0x000005b8:    4620         F      MOV      r0,r4
        0x000005ba:    f3af8000    ....    NOP.W    
        0x000005be:    2600        .&      MOVS     r6,#0
        0x000005c0:    e008        ..      B        0x5d4 ; _printf_int_common + 90
        0x000005c2:    e9d42101    ...!    LDRD     r2,r1,[r4,#4]
        0x000005c6:    f81a0006    ....    LDRB     r0,[r10,r6]
        0x000005ca:    4790        .G      BLX      r2
        0x000005cc:    6a20         j      LDR      r0,[r4,#0x20]
        0x000005ce:    1c40        @.      ADDS     r0,r0,#1
        0x000005d0:    1c76        v.      ADDS     r6,r6,#1
        0x000005d2:    6220         b      STR      r0,[r4,#0x20]
        0x000005d4:    454e        NE      CMP      r6,r9
        0x000005d6:    dbf4        ..      BLT      0x5c2 ; _printf_int_common + 72
        0x000005d8:    7820         x      LDRB     r0,[r4,#0]
        0x000005da:    06c0        ..      LSLS     r0,r0,#27
        0x000005dc:    d50a        ..      BPL      0x5f4 ; _printf_int_common + 122
        0x000005de:    4620         F      MOV      r0,r4
        0x000005e0:    f3af8000    ....    NOP.W    
        0x000005e4:    e006        ..      B        0x5f4 ; _printf_int_common + 122
        0x000005e6:    e9d42101    ...!    LDRD     r2,r1,[r4,#4]
        0x000005ea:    2030        0       MOVS     r0,#0x30
        0x000005ec:    4790        .G      BLX      r2
        0x000005ee:    6a20         j      LDR      r0,[r4,#0x20]
        0x000005f0:    1c40        @.      ADDS     r0,r0,#1
        0x000005f2:    6220         b      STR      r0,[r4,#0x20]
        0x000005f4:    1e38        8.      SUBS     r0,r7,#0
        0x000005f6:    f1a70701    ....    SUB      r7,r7,#1
        0x000005fa:    dcf4        ..      BGT      0x5e6 ; _printf_int_common + 108
        0x000005fc:    e007        ..      B        0x60e ; _printf_int_common + 148
        0x000005fe:    e9d42101    ...!    LDRD     r2,r1,[r4,#4]
        0x00000602:    f8180005    ....    LDRB     r0,[r8,r5]
        0x00000606:    4790        .G      BLX      r2
        0x00000608:    6a20         j      LDR      r0,[r4,#0x20]
        0x0000060a:    1c40        @.      ADDS     r0,r0,#1
        0x0000060c:    6220         b      STR      r0,[r4,#0x20]
        0x0000060e:    1e28        (.      SUBS     r0,r5,#0
        0x00000610:    f1a50501    ....    SUB      r5,r5,#1
        0x00000614:    dcf3        ..      BGT      0x5fe ; _printf_int_common + 132
        0x00000616:    4620         F      MOV      r0,r4
        0x00000618:    f3af8000    ....    NOP.W    
        0x0000061c:    7820         x      LDRB     r0,[r4,#0]
        0x0000061e:    0600        ..      LSLS     r0,r0,#24
        0x00000620:    d502        ..      BPL      0x628 ; _printf_int_common + 174
        0x00000622:    2002        .       MOVS     r0,#2
        0x00000624:    e8bd87f0    ....    POP      {r4-r10,pc}
        0x00000628:    2001        .       MOVS     r0,#1
        0x0000062a:    e7fb        ..      B        0x624 ; _printf_int_common + 170
    .text
    _printf_char_file
        0x0000062c:    4b07        .K      LDR      r3,[pc,#28] ; [0x64c] = 0x8b
        0x0000062e:    b570        p.      PUSH     {r4-r6,lr}
        0x00000630:    460d        .F      MOV      r5,r1
        0x00000632:    447b        {D      ADD      r3,r3,pc
        0x00000634:    f000f811    ....    BL       _printf_char_common ; 0x65a
        0x00000638:    4604        .F      MOV      r4,r0
        0x0000063a:    4628        (F      MOV      r0,r5
        0x0000063c:    f000f83c    ..<.    BL       ferror ; 0x6b8
        0x00000640:    b110        ..      CBZ      r0,0x648 ; _printf_char_file + 28
        0x00000642:    f04f30ff    O..0    MOV      r0,#0xffffffff
        0x00000646:    bd70        p.      POP      {r4-r6,pc}
        0x00000648:    4620         F      MOV      r0,r4
        0x0000064a:    bd70        p.      POP      {r4-r6,pc}
    $d
        0x0000064c:    0000008b    ....    DCD    139
    $t
    .text
    _printf_input_char
        0x00000650:    6901        .i      LDR      r1,[r0,#0x10]
        0x00000652:    1c4a        J.      ADDS     r2,r1,#1
        0x00000654:    6102        .a      STR      r2,[r0,#0x10]
        0x00000656:    7808        .x      LDRB     r0,[r1,#0]
        0x00000658:    4770        pG      BX       lr
    _printf_char_common
        0x0000065a:    b500        ..      PUSH     {lr}
        0x0000065c:    b08f        ..      SUB      sp,sp,#0x3c
        0x0000065e:    e9cd3101    ...1    STRD     r3,r1,[sp,#4]
        0x00000662:    2100        .!      MOVS     r1,#0
        0x00000664:    9105        ..      STR      r1,[sp,#0x14]
        0x00000666:    4905        .I      LDR      r1,[pc,#20] ; [0x67c] = 0xffffffe5
        0x00000668:    4479        yD      ADD      r1,r1,pc
        0x0000066a:    e9cd1003    ....    STRD     r1,r0,[sp,#0xc]
        0x0000066e:    4611        .F      MOV      r1,r2
        0x00000670:    4668        hF      MOV      r0,sp
        0x00000672:    f7ffff21    ..!.    BL       __printf ; 0x4b8
        0x00000676:    b00f        ..      ADD      sp,sp,#0x3c
        0x00000678:    bd00        ..      POP      {pc}
    $d
        0x0000067a:    0000        ..      DCW    0
        0x0000067c:    ffffffe5    ....    DCD    4294967269
    $t
    .text
    exit
        0x00000680:    b510        ..      PUSH     {r4,lr}
        0x00000682:    4604        .F      MOV      r4,r0
        0x00000684:    f3af8000    ....    NOP.W    
        0x00000688:    4620         F      MOV      r0,r4
        0x0000068a:    e8bd4010    ...@    POP      {r4,lr}
        0x0000068e:    f7ffbee5    ....    B.W      __rt_exit ; 0x45c
        0x00000692:    0000        ..      MOVS     r0,r0
    i.SystemInit
    SystemInit
        0x00000694:    4803        .H      LDR      r0,[pc,#12] ; [0x6a4] = 0
        0x00000696:    4904        .I      LDR      r1,[pc,#16] ; [0x6a8] = 0xe000ed08
        0x00000698:    6008        .`      STR      r0,[r1,#0]
        0x0000069a:    4804        .H      LDR      r0,[pc,#16] ; [0x6ac] = 0x17d7840
        0x0000069c:    4904        .I      LDR      r1,[pc,#16] ; [0x6b0] = 0x2000000c
        0x0000069e:    6008        .`      STR      r0,[r1,#0]
        0x000006a0:    4770        pG      BX       lr
    $d
        0x000006a2:    0000        ..      DCW    0
        0x000006a4:    00000000    ....    DCD    0
        0x000006a8:    e000ed08    ....    DCD    3758157064
        0x000006ac:    017d7840    @x}.    DCD    25000000
        0x000006b0:    2000000c    ...     DCD    536870924
    $t
    i._sys_exit
    _sys_exit
        0x000006b4:    bf00        ..      NOP      
        0x000006b6:    e7fe        ..      B        0x6b6 ; _sys_exit + 2
    i.ferror
    ferror
        0x000006b8:    4601        .F      MOV      r1,r0
        0x000006ba:    f04f30ff    O..0    MOV      r0,#0xffffffff
        0x000006be:    4770        pG      BX       lr
    i.fputc
    fputc
        0x000006c0:    b510        ..      PUSH     {r4,lr}
        0x000006c2:    4602        .F      MOV      r2,r0
        0x000006c4:    4610        .F      MOV      r0,r2
        0x000006c6:    4b0b        .K      LDR      r3,[pc,#44] ; [0x6f4] = 0xe0000e80
        0x000006c8:    681b        .h      LDR      r3,[r3,#0]
        0x000006ca:    f0030301    ....    AND      r3,r3,#1
        0x000006ce:    b17b        {.      CBZ      r3,0x6f0 ; fputc + 48
        0x000006d0:    4b08        .K      LDR      r3,[pc,#32] ; [0x6f4] = 0xe0000e80
        0x000006d2:    3b80        .;      SUBS     r3,r3,#0x80
        0x000006d4:    681b        .h      LDR      r3,[r3,#0]
        0x000006d6:    f0030301    ....    AND      r3,r3,#1
        0x000006da:    b14b        K.      CBZ      r3,0x6f0 ; fputc + 48
        0x000006dc:    e000        ..      B        0x6e0 ; fputc + 32
        0x000006de:    bf00        ..      NOP      
        0x000006e0:    f04f4360    O.`C    MOV      r3,#0xe0000000
        0x000006e4:    681b        .h      LDR      r3,[r3,#0]
        0x000006e6:    2b00        .+      CMP      r3,#0
        0x000006e8:    d0f9        ..      BEQ      0x6de ; fputc + 30
        0x000006ea:    f04f4460    O.`D    MOV      r4,#0xe0000000
        0x000006ee:    7020         p      STRB     r0,[r4,#0]
        0x000006f0:    bf00        ..      NOP      
        0x000006f2:    bd10        ..      POP      {r4,pc}
    $d
        0x000006f4:    e0000e80    ....    DCD    3758100096
    $t
    i.main
    main
        0x000006f8:    b51f        ..      PUSH     {r0-r4,lr}
        0x000006fa:    a801        ..      ADD      r0,sp,#4
        0x000006fc:    9000        ..      STR      r0,[sp,#0]
        0x000006fe:    480a        .H      LDR      r0,[pc,#40] ; [0x728] = 0x41a40000
        0x00000700:    9900        ..      LDR      r1,[sp,#0]
        0x00000702:    6088        .`      STR      r0,[r1,#8]
        0x00000704:    466a        jF      MOV      r2,sp
        0x00000706:    a901        ..      ADD      r1,sp,#4
        0x00000708:    a008        ..      ADR      r0,{pc}+0x24 ; 0x72c
        0x0000070a:    f7fffec9    ....    BL       __2printf ; 0x4a0
        0x0000070e:    9a00        ..      LDR      r2,[sp,#0]
        0x00000710:    3208        .2      ADDS     r2,r2,#8
        0x00000712:    a903        ..      ADD      r1,sp,#0xc
        0x00000714:    a010        ..      ADR      r0,{pc}+0x44 ; 0x758
        0x00000716:    f7fffec3    ....    BL       __2printf ; 0x4a0
        0x0000071a:    481d        .H      LDR      r0,[pc,#116] ; [0x790] = 0x41ac0000
        0x0000071c:    9900        ..      LDR      r1,[sp,#0]
        0x0000071e:    6088        .`      STR      r0,[r1,#8]
        0x00000720:    2000        .       MOVS     r0,#0
        0x00000722:    b004        ..      ADD      sp,sp,#0x10
        0x00000724:    bd10        ..      POP      {r4,pc}
    $d
        0x00000726:    0000        ..      DCW    0
        0x00000728:    41a40000    ...A    DCD    1101266944
        0x0000072c:    6d657426    &tem    DCD    1835365414
        0x00000730:    6d754870    pHum    DCD    1836402800
        0x00000734:    74614469    iDat    DCD    1952531561
        0x00000738:    203d2061    a =     DCD    540876897
        0x0000073c:    70257830    0x%p    DCD    1881503792
        0x00000740:    7426202c    , &t    DCD    1948655660
        0x00000744:    48706d65    empH    DCD    1215327589
        0x00000748:    50696d75    umiP    DCD    1349086581
        0x0000074c:    3d207274    tr =    DCD    1025536628
        0x00000750:    25783020     0x%    DCD    628633632
        0x00000754:    000a2e70    p...    DCD    667248
        0x00000758:    6d657426    &tem    DCD    1835365414
        0x0000075c:    6d754870    pHum    DCD    1836402800
        0x00000760:    74614469    iDat    DCD    1952531561
        0x00000764:    65742e61    a.te    DCD    1702112865
        0x00000768:    3d20706d    mp =    DCD    1025536109
        0x0000076c:    25783020     0x%    DCD    628633632
        0x00000770:    26202c70    p, &    DCD    639642736
        0x00000774:    706d6574    temp    DCD    1886217588
        0x00000778:    696d7548    Humi    DCD    1768781128
        0x0000077c:    2d727450    Ptr-    DCD    762475600
        0x00000780:    6d65743e    >tem    DCD    1835365438
        0x00000784:    203d2070    p =     DCD    540876912
        0x00000788:    70257830    0x%p    DCD    1881503792
        0x0000078c:    00000a2e    ....    DCD    2606
        0x00000790:    41ac0000    ...A    DCD    1101791232
    $d.realdata
    .constdata
    uc_hextab
        0x00000794:    33323130    0123    DCD    858927408
        0x00000798:    37363534    4567    DCD    926299444
        0x0000079c:    42413938    89AB    DCD    1111570744
        0x000007a0:    46454443    CDEF    DCD    1178944579
        0x000007a4:    00583040    @0X.    DCD    5779520
    lc_hextab
        0x000007a8:    33323130    0123    DCD    858927408
        0x000007ac:    37363534    4567    DCD    926299444
        0x000007b0:    62613938    89ab    DCD    1650538808
        0x000007b4:    66656463    cdef    DCD    1717920867
        0x000007b8:    00783040    @0x.    DCD    7876672
    Region$$Table$$Base
        0x000007bc:    000007dc    ....    DCD    2012
        0x000007c0:    20000000    ...     DCD    536870912
        0x000007c4:    00000010    ....    DCD    16
        0x000007c8:    000003fc    ....    DCD    1020
        0x000007cc:    000007ec    ....    DCD    2028
        0x000007d0:    20000010    ...     DCD    536870928
        0x000007d4:    00000400    ....    DCD    1024
        0x000007d8:    00000418    ....    DCD    1048
    Region$$Table$$Limit

** Section #2 'RW_IRAM1' (SHT_PROGBITS) [SHF_ALLOC + SHF_WRITE]
    Size   : 16 bytes (alignment 4)
    Address: 0x20000000


** Section #3 'RW_IRAM1' (SHT_NOBITS) [SHF_ALLOC + SHF_WRITE]
    Size   : 1024 bytes (alignment 8)
    Address: 0x20000010


** Section #4 '.debug_abbrev' (SHT_PROGBITS)
    Size   : 1476 bytes


** Section #5 '.debug_frame' (SHT_PROGBITS)
    Size   : 1184 bytes


** Section #6 '.debug_info' (SHT_PROGBITS)
    Size   : 9192 bytes


** Section #7 '.debug_line' (SHT_PROGBITS)
    Size   : 1468 bytes


** Section #8 '.debug_loc' (SHT_PROGBITS)
    Size   : 236 bytes


** Section #9 '.debug_macinfo' (SHT_PROGBITS)
    Size   : 27988 bytes


** Section #10 '.debug_pubnames' (SHT_PROGBITS)
    Size   : 334 bytes


** Section #11 '.symtab' (SHT_SYMTAB)
    Size   : 4400 bytes (alignment 4)
    String table #12 '.strtab'
    Last local symbol no. 174


** Section #12 '.strtab' (SHT_STRTAB)
    Size   : 4152 bytes


** Section #13 '.note' (SHT_NOTE)
    Size   : 28 bytes (alignment 4)


** Section #14 '.comment' (SHT_PROGBITS)
    Size   : 2972 bytes


** Section #15 '.shstrtab' (SHT_STRTAB)
    Size   : 156 bytes


address     size       variable name                            type
0x2000000c  0x4        SystemCoreClock                          uint32_t

address     size       variable name                            type
0x20000008  0x4        ITM_RxBuffer                             volatile int32_t

address     size       variable name                            type
0x20000004  0x4        __stdin                                  FILE
0x20000004  0x4        __stdin.handle                           int

address     size       variable name                            type
0x20000000  0x4        __stdout                                 FILE
0x20000000  0x4        __stdout.handle                          int

